(dp1
S'output'
p2
S"<type 'exceptions.SyntaxError'> invalid syntax (default.py, line 305)"
p3
sS'layer'
p4
S'/home/www-data/web2py/applications/musicbrainz/controllers/default.py'
p5
sS'code'
p6
S'# -*- coding: utf-8 -*-\n# this file is released under public domain and you can use without limitations\n\n#########################################################################\n## This is a deafult controller\n## - index is the default action controller. Performs the search functionality\n## - album is used to render the release group page\n## - artist is used to render the artist information page\n## - release is used to render the information about a single release\n## - playlist allows the user to add or delete playlists\n## - user is required for authentication and authorization\n## - download is for downloading files uploaded in the db (does streaming)\n## - call exposes all registered services (none by default)\n#########################################################################\n\nimport datetime\nimport httplib\nimport pprint\nimport json\nimport urllib2, urllib\nfrom bs4 import BeautifulSoup\nimport csv\nfrom gluon.debug import dbg\n\n########### GETTING IMAGE LINK FOR MBID #############\ndef get_link(destination):\n\ttry:\n\t\tproxy = urllib2.ProxyHandler({\'http\': \'http://cs5090240:phone01202767129@10.10.78.62:3128\'})\n\t\tauthentication = urllib2.HTTPBasicAuthHandler()\n\t\topener = urllib2.build_opener(proxy, authentication, urllib2.HTTPHandler)\n\t\turllib2.install_opener(opener)\n\t\treq = urllib2.Request(url=destination,data="")\n\t\tf = urllib2.urlopen(req)\n\t\tdata =json.load(f)\n\t\tcoverarturl = data[\'images\'][0][\'thumbnails\'][\'small\']\n\texcept:\n\t\tcoverarturl = URL(\'static\',\'images/no_image_found.jpg\')\n\treturn coverarturl\n\ndef get_wiki_desc(url):\n\ttry:\n\t\tproxy = urllib2.ProxyHandler({\'http\': \'http://cs5090240:phone01202767129@10.10.78.62:3128\'})\n\t\tauth = urllib2.HTTPBasicAuthHandler()\n\t\topener = urllib2.build_opener(proxy, auth, urllib2.HTTPHandler)\n\t\turllib2.install_opener(opener)\n\n\t\treq = urllib2.Request(url, headers={\'User-Agent\' : "Mozilla/5.0 (Windows; U; Windows NT 5.1; it; rv:1.8.1.11)Gecko/20071127 Firefox/2.0.0.11"}) \n\t\tconn = urllib2.urlopen( req )\n\n\t\tdata = conn.read()\n\t\tsoup = BeautifulSoup(data)\n\t\tdiv = soup.find(\'div\', {\'id\': \'bodyContent\'})\n\t\tdiv = soup.find(\'div\', {\'id\': \'bodyContent\'})\n\t\tsnip = BeautifulSoup(\'\')\n\n\t\tfor node in div.childGenerator():\n\t\t\tif (isinstance(node, basestring) or\n\t\t\t\tnode.name.lower() in ["table", "script"] or\n\t\t\t\tnode.get(\'id\') in ["siteSub", "contentSub", "jump-to-nav"] or\n\t\t\t\tnode.get(\'class\') in [\'dablink\', \'toclimit-2\']):\n\t\t\t\tcontinue\n\n\t\t\tif node.name.lower() == "h2":\n\t\t\t\tbreak\n\t\t\tsnip.append(node)\n\t\t#return str(snip.p.get_text())\n\t\treturn "Wikipedia description available at "+str(url)\n\texcept:\n\t\treturn "No wiki description"\n\n\n########### INDEX CONTROLLER ##############\ndef index():\n\t"""\n\tInitializes reponse variables.\n\tShow the search bar which enables the user to search for music, artists,\n\talbums and records. On clicking the search tab, the user will be redirected\n\tto search action.\n\tThis page also displays featured artists, albums, music.\n\t"""\n\tform = FORM(\'\',\n\t\t\t\tINPUT(_name=\'search_term\', requires = IS_NOT_EMPTY(), _class=\'input-large search-query\', \n\t\t\t\t\t_placeholder=\'Search for music\', _autocomplete="off"),\n\t\t\t\tINPUT(_type=\'submit\', _class=\'btn\', _value=\'Search\'), _class=\'form-search\')\n\tif form.process().accepted:\n\t\tredirect(URL(\'search\', vars=dict(search_term=request.vars.search_term)))\n\tfeatured_albums = db.executesql("select * from top_release_group;")\n\tgroupinfo = []\n\timagelink = []\n\tfor row in featured_albums:\n\t\tgroupinfo.append(row[0])\n\t\tif (row[2]):\n\t\t\timagelink.append(row[2])\n\t\telse:\n\t\t\timageurl = get_link("http://www.coverartarchive.org/release-group/"+row[1]);\n\t\t\tdb.executesql("update top_release_group set url = \'"+str(imageurl)+"\' where id="+str(row[0])+";")\n\t\t\timagelink.append(imageurl)\n\treturn dict(form=form, groupinfo=groupinfo, imagelink=imagelink)\n\n########### SEARCH CONTROLLER ##############\ndef search():\n\t"""\n\tReturns search results of the query obtained in request args. It Returns\n\tfour seperate variables containing results for artists, music, albums and\n\trecords.\n\t"""\n\tif not request.vars.search_term:\n\t\tredirect(URL(\'index\'))\n\tterm = request.vars.search_term\n\torigterm = term\n\tterm = term.replace(\' \',\'|\')\n\tartists = db.executesql("select distinct(m1.id), m1.art_name, m1.artist_type, m1.country, m1.b_year,m1.b_month,m1.b_date,m1.e_year,m1.e_month,m1.e_day,ts_rank(to_tsvector(m1.art_name),to_tsquery(\'"+term+"\')) rank from art_info m1 where to_tsvector(\'english\',m1.art_name) @@ to_tsquery(\'"+term+"\') order by rank desc limit 20;")\n\talbums = db.executesql("select distinct(m1.id),m2.name,m1.art_id,m1.art_name,m1.rel_type,m1.count,ts_rank(to_tsvector(m2.name),to_tsquery(\'"+term+"\')) rank from rel_art m1, release_name m2, release_group m3 where m3.name = m2.id and m3.id = m1.id and to_tsvector(\'english\',m2.name) @@ to_tsquery(\'"+term+"\') order by rank desc limit 20;")\n\tsongs = db.executesql("select m2.id, m1.name, m3.art_id, m3.art_name, m3.rel_id, m3.rel_name from track_name m1, recording m2, rec_rel_art m3 where m1.id = m2.name and m2.id = m3.rec_id and lower(m1.name) LIKE lower(\'%%"+origterm+"%%\') limit 20;")\n\treturn dict(songs=songs, albums=albums, artists=artists)\n\n########### ALBUM CONTROLLER ##############\ndef album():\n\t"""\n\tThis action is responsible for obtaining and returning all the information \n\trelated to a particular release group item. \n\t"""\n\tif not request.vars.id:\n\t\tredirect(URL(\'index\'))\n\tid = request.vars.id\n\treleasegroupname = db.executesql("select m1.name, m2.id from release_name as m1, release_group as m2 where m1.id = m2.name and m2.id = "+id+";")\n\treleasegroup = db.executesql("select distinct(m2.id),m3.name,m5.name,m7.track_count,m2.date_year,m2.date_month,m2.date_day,m6.name,m2.barcode from release_group m1,release m2,release_name m3,medium m4,medium_format m5, country m6, tracklist m7 where m5.id = m4.format and m4.release = m2.id and m2.name = m3.id and m2.release_group = m1.id and m2.country = m6.id and m4.tracklist = m7.id and m1.id = "+id+";")\n\turls = db.executesql("select m2.url from l_release_group_url m1, url m2 where m1.entity1 = m2.id and m1.entity0 = "+id+";")\n\tmbid = db.executesql("select m1.gid from release_group m1 where m1.id = "+id+";")\n\trating = db.executesql("select rating, count from release_group_rating_global where id = "+id+";")\n\tavg_rating = float(rating[0][0])/float(rating[0][1])\n\tif auth.user:\n\t\turating = db.executesql("select rating from release_group_rating_local where id = "+str(id)+" and user_id = "+str(auth.user.id)+";")\n\t\tif urating:\n\t\t\tuser_rating = urating[0][0]\n\t\telse:\n\t\t\tuser_rating = 0\n\telse:\n\t\tuser_rating = 0\n\ttry:\n\t\tproxy = urllib2.ProxyHandler({\'http\': \'http://cs5090240:phone01202767129@10.10.78.62:3128\'})\n\t\tauthentication = urllib2.HTTPBasicAuthHandler()\n\t\topener = urllib2.build_opener(proxy, authentication, urllib2.HTTPHandler)\n\t\turllib2.install_opener(opener)\n\t\tdestination = \'http://www.coverartarchive.org/release-group/\'+mbid[0][0]\n\t\t#dbg.set_trace()\n\t\treq = urllib2.Request(url=destination,data="")\n\t\tf = urllib2.urlopen(req)\n\t\t#dbg.set_trace()\n\t\tdata =json.load(f)\n\t\t#dbg.set_trace()\n\t\tcoverarturl = data[\'images\'][0][\'image\']\n\texcept:\n\t\tcoverarturl = URL(\'static\',\'images/no_image_found.jpg\')\n\tlinks = []\n\twikiurl = ""\n\tfor url in urls:\n\t\tif "wikipedia" in url[0]:\n\t\t\twikiurl = url[0]\n\t\telse:\n\t\t\tlinks.append(url[0])\n\tif wikiurl:\n\t\t#wiki = get_wiki_desc(str(wikiurl)+"?printable=yes")\n\t\twiki = "Description available at "+str(wikiurl)\n\telse:\n\t\twiki = "No wiki description"\n\treturn dict(releasegroupname=releasegroupname, releasegroup=releasegroup, links=links, wiki=wiki, wikiurl=wikiurl, coverarturl=coverarturl, avg_rating=avg_rating, user_rating=user_rating)\n\n########### RELEASE CONTROLLER ##############\ndef release():\n\t"""\n\tThis action is reponsible  for displaying the displaying the tracklist\n\tof a particular release\n\t"""\n\tif not request.vars.id:\n\t\tredirect(URL(\'index\'))\n\tid = request.vars.id\n\treleasename = db.executesql("select m1.name from release_name as m1, release as m2 where m1.id = m2.name and m2.id = "+id+";")\n\ttracklist = db.executesql("select m4.id, m5.name, m4.position, m4.length from release m1,medium m2,tracklist m3,track m4,track_name m5 where m5.id = m4.name and m4.tracklist = m3.id and m3.id = m2.tracklist and m2.release = m1.id and m1.id = "+id+" order by m4.position;")\n\turls = db.executesql("select m2.url from l_release_url m1, url m2 where m1.entity1 = m2.id and m1.entity0 = "+id+";")\n\tmbid = db.executesql("select m1.gid from release m1 where m1.id = "+id+";")\n\ttry:\n\t\tproxy = urllib2.ProxyHandler({\'http\': \'http://cs5090240:phone01202767129@10.10.78.62:3128\'})\n\t\tauthentication = urllib2.HTTPBasicAuthHandler()\n\t\topener = urllib2.build_opener(proxy, authentication, urllib2.HTTPHandler)\n\t\turllib2.install_opener(opener)\n\t\tdestination = \'http://www.coverartarchive.org/release/\'+mbid[0][0]\n\t\t#dbg.set_trace()\n\t\treq = urllib2.Request(url=destination,data="")\n\t\tf = urllib2.urlopen(req)\n\t\t#dbg.set_trace()\n\t\tdata =json.load(f)\n\t\t#dbg.set_trace()\n\t\tcoverarturl = data[\'images\'][0][\'image\']\n\texcept:\n\t\tcoverarturl = URL(\'static\',\'images/no_image_found.jpg\')\n\tlinks = []\n\twiki = ""\n\tfor url in urls:\n\t\tif "wikipedia" in url[0]:\n\t\t\twiki = url[0]\n\t\telse:\n\t\t\tlinks.append(url[0])\n\ttracklist1 = []\n\tfor row in tracklist:\n\t\trow1 = list(row)\n\t\tif (row1[3]):\n\t\t\td = datetime.datetime.fromtimestamp(int(row1[3])//1000)\n\t\t\trow1[3] = str(d.hour)+":"+str(d.minute)\n\t\telse:\n\t\t\trow1[3] = \'N/A\'\n\t\ttracklist1.append(row1)\n\tif auth.user:\n\t\tplaylists = db(db.playlists.user_id == auth.user.id).select()\n\telse:\n\t\tplaylists = None\n\treturn dict(tracklist=tracklist1, releasename=releasename, wiki=wiki, links=links, playlists=playlists, coverarturl=coverarturl)\n\n########### ARTIST CONTROLLER ##############\ndef artist():\n\t"""\n\tThis action is reponsible for displaying all the information related \n\tto an artist\n\t"""\n\tif not request.vars.id:\n\t\tredirect(URL(\'index\'))\n\tid = request.vars.id\n\tartistname = db.executesql("select m1.name from artist_name as m1, artist as m2 where m1.id = m2.name and m2.id = "+id+";")\n\turls = db.executesql("select distinct(m2.url) from l_artist_url m1, url m2 where m2.id = m1.entity1 and m1.entity0 = "+id+";")\n\tdiscography = db.executesql("select m4.name,m5.name,m3.id,m6.count from artist_credit_name m1, artist_credit m2,release_group m3,release_name m4, release_group_primary_type m5,rel_group_count m6 where m4.id = m3.name and m3.artist_credit = m2.id and m2.id = m1.artist_credit and m5.id = m3.type and m6.id = m3.id and m1.artist = "+id+";")\n\tlinks = []\n\twiki = ""\n\tfor url in urls:\n\t\tif "wikipedia" in url[0]:\n\t\t\twiki = url[0]\n\t\telse:\n\t\t\tlinks.append(url[0])\n\treturn dict(discography=discography, wiki=wiki, links=links, artistname=artistname)\n\n########### PLAYLIST CONTROLLER ##############\n@auth.requires_login()\ndef playlist():\n\tdb.playlists.user_id.default = auth.user.id\n\tform =  SQLFORM(db.playlists, labels={\'name\':\'Name\', \'description\':\'Description\', \'submit\':\'Add Playlist\'})\n\tif form.process().accepted:\n\t\tresponse.flash = \'Your playlists has been added.\'\n\tplaylists = db(db.playlists.user_id == auth.user.id).select()\n\treturn dict(playlists=playlists, form=form)\n\n########### DELETE PLAYLIST ################\n@auth.requires_login()\ndef deleteplaylist():\n\tif request.vars.id:\n\t\tdb(db.playlists.id == request.vars.id).delete()\n\treturn dict()\n\n########## ADD TO PLAYLIST ################\n@auth.requires_login()\ndef addtoplaylist():\n\tif request.vars:\n\t\tplaylistid = str(request.vars.playlistid)\n\t\ttrackid = str(request.vars.trackid)\n\t\tif not db.executesql("SELECT * FROM playlist_track where playlist_id="+playlistid+" AND track_id="+trackid+";"):\n\t\t\tdb.executesql("INSERT INTO playlist_track VALUES(" + playlistid + "," + trackid + ");")\n\treturn dict()\n\n########## PLAYLIST HOME ################\ndef playlisthome():\n\tif not request.vars.id:\n\t\tredirect(URL(\'index\'))\n\tid = request.vars.id\n\trecordings = db.executesql("select pr.playlist_id, pr.track_id, tn.name from playlist_track as pr, track as tk, track_name as tn where pr.playlist_id = "+id+" AND pr.track_id = tk.id AND tk.name = tn.id;")\n\tplaylist_info = db.executesql("select * from playlists where id = "+id+";")\n\treturn dict(recordings=recordings, playlist_info=playlist_info);\n\n########## DELETE TRACK FROM PLAYLIST ###########\ndef delete_track_from_playlist():\n\tif not (request.vars.pid and request.vars.tid):\n\t\tredirect(URL(\'index\'))\n\tpid = request.vars.pid\n\ttid = request.vars.tid\n\tdb.executesql("DELETE FROM playlist_track WHERE playlist_id="+pid+" AND track_id="+tid+";")\n\treturn dict()\n\n########## MODIFY USER RATINGS ##############\ndef modifyreleasegrouprating():\n\tif not (request.vars.rgid and request.vars.uid and request.vars.score):\n\t\tredirect(URL(\'index\'))\n\trgid = request.vars.rgid\n\tuid = request.vars.uid\n\tscore = request.vars.score\n\tif not db.executesql("select * from release_group_rating_local where id = "+rgid+" and user_id = "+uid+";"):\n\t\tdb.executesql("insert into release_group_rating_local values("+rgid+","+uid+","+score+");")\n\telse:\n\t\tdb.executesql("update release_group_rating_local set rating = "+score+" where id = "+rgid+" and user_id = "+uid+";")\n\treturn dict()\n\n########## EXPORT PLAYLIST TO CSV ############\ndef export():\n\tif not request.vars.id:\n\t\tredirect(URL(\'index\'))\n\tid = request.vars.id\n\trecordings = db.executesql("select pr.track_id, tn.name from playlist_track as pr, track as tk, track_name as tn where pr.playlist_id = "+id+" AND pr.track_id = tk.id AND tk.name = tn.id;")\n\tfilename = "plalist_id"+str(id)+".csv"\n\twith open(os.path.join(request.folder,\'uploads\',filename))\n\ndef user():\n\t"""\n\texposes:\n\thttp://..../[app]/default/user/login\n\thttp://..../[app]/default/user/logout\n\thttp://..../[app]/default/user/register\n\thttp://..../[app]/default/user/profile\n\thttp://..../[app]/default/user/retrieve_password\n\thttp://..../[app]/default/user/change_password\n\tuse @auth.requires_login()\n\t\t@auth.requires_membership(\'group name\')\n\t\t@auth.requires_permission(\'read\',\'table name\',record_id)\n\tto decorate functions that need access control\n\t"""\n\treturn dict(form=auth())\n\n\ndef download():\n\t"""\n\tallows downloading of uploaded files\n\thttp://..../[app]/default/download/[filename]\n\t"""\n\treturn response.download(request, db)\n\n\ndef call():\n\t"""\n\texposes services. for example:\n\thttp://..../[app]/default/call/jsonrpc\n\tdecorate with @services.jsonrpc the functions to expose\n\tsupports xml, json, xmlrpc, jsonrpc, amfrpc, rss, csv\n\t"""\n\treturn service()\n\n\n@auth.requires_signature()\ndef data():\n\t"""\n\thttp://..../[app]/default/data/tables\n\thttp://..../[app]/default/data/create/[table]\n\thttp://..../[app]/default/data/read/[table]/[id]\n\thttp://..../[app]/default/data/update/[table]/[id]\n\thttp://..../[app]/default/data/delete/[table]/[id]\n\thttp://..../[app]/default/data/select/[table]\n\thttp://..../[app]/default/data/search/[table]\n\tbut URLs must be signed, i.e. linked with\n\t  A(\'table\',_href=URL(\'data/tables\',user_signature=True))\n\tor with the signed load operator\n\t  LOAD(\'default\',\'data.load\',args=\'tables\',ajax=True,user_signature=True)\n\t"""\n\treturn dict(form=crud())\n\nresponse._vars=response._caller(index)\n'
p7
sS'snapshot'
p8
(dp9
S'exception'
p10
(dp11
S'__getslice__'
p12
S"<method-wrapper '__getslice__' of exceptions.SyntaxError object>"
p13
sS'text'
p14
S'"\\twith open(os.path.join(request.folder,\'uploads\',filename))\\n"'
p15
sS'__str__'
p16
S"<method-wrapper '__str__' of exceptions.SyntaxError object>"
p17
sS'__reduce__'
p18
S'<built-in method __reduce__ of exceptions.SyntaxError object>'
p19
sS'__dict__'
p20
S'{}'
p21
sS'__sizeof__'
p22
S'<built-in method __sizeof__ of exceptions.SyntaxError object>'
p23
sS'__init__'
p24
S"<method-wrapper '__init__' of exceptions.SyntaxError object>"
p25
sS'__setattr__'
p26
S"<method-wrapper '__setattr__' of exceptions.SyntaxError object>"
p27
sS'__reduce_ex__'
p28
S'<built-in method __reduce_ex__ of exceptions.SyntaxError object>'
p29
sS'__new__'
p30
S'<built-in method __new__ of type object>'
p31
sS'__format__'
p32
S'<built-in method __format__ of exceptions.SyntaxError object>'
p33
sS'__class__'
p34
S"<type 'exceptions.SyntaxError'>"
p35
sS'filename'
p36
S"'/home/www-data/web2py/applications/musicbrainz/controllers/default.py'"
p37
sS'lineno'
p38
S'305'
p39
sS'msg'
p40
S"'invalid syntax'"
p41
sS'__doc__'
p42
S"'Invalid syntax.'"
p43
sS'__getitem__'
p44
S"<method-wrapper '__getitem__' of exceptions.SyntaxError object>"
p45
sS'__setstate__'
p46
S'<built-in method __setstate__ of exceptions.SyntaxError object>'
p47
sS'__getattribute__'
p48
S"<method-wrapper '__getattribute__' of exceptions.SyntaxError object>"
p49
sS'print_file_and_line'
p50
S'None'
p51
sS'args'
p52
S'(\'invalid syntax\', (\'/home/www-data/web2py/applications/musicbrainz/controllers/default.py\', 305, 60, "\\twith open(os.path.join(request.folder,\'uploads\',filename))\\n"))'
p53
sS'__subclasshook__'
p54
S'<built-in method __subclasshook__ of type object>'
p55
sS'offset'
p56
S'60'
p57
sS'__unicode__'
p58
S'<built-in method __unicode__ of exceptions.SyntaxError object>'
p59
sS'__delattr__'
p60
S"<method-wrapper '__delattr__' of exceptions.SyntaxError object>"
p61
sS'__repr__'
p62
S"<method-wrapper '__repr__' of exceptions.SyntaxError object>"
p63
sS'__hash__'
p64
S"<method-wrapper '__hash__' of exceptions.SyntaxError object>"
p65
ssS'evalue'
p66
S'invalid syntax (default.py, line 305)'
p67
sS'request'
p68
cgluon.html
XML_unpickle
p69
(S'sfU\x00\x00<div><table><tr><td style="font-weight:bold;vertical-align:top">ajax</td><td valign="top">:</td><td><div>False</div></td></tr><tr><td style="font-weight:bold;vertical-align:top">application</td><td valign="top">:</td><td><div>musicbrainz</div></td></tr><tr><td style="font-weight:bold;vertical-align:top">args</td><td valign="top">:</td><td><div><table></table></div></td></tr><tr><td style="font-weight:bold;vertical-align:top">body</td><td valign="top">:</td><td><div>&lt;open file &#x27;&lt;fdopen&gt;&#x27;, mode &#x27;w+b&#x27; at 0xa9f05650&gt;</div></td></tr><tr><td style="font-weight:bold;vertical-align:top">cid</td><td valign="top">:</td><td><div>None</div></td></tr><tr><td style="font-weight:bold;vertical-align:top">client</td><td valign="top">:</td><td><div>10.160.1.235</div></td></tr><tr><td style="font-weight:bold;vertical-align:top">controller</td><td valign="top">:</td><td><div>default</div></td></tr><tr><td style="font-weight:bold;vertical-align:top">cookies</td><td valign="top">:</td><td><div><table><tr><td style="font-weight:bold;vertical-align:top">session_id_musicbrainz</td><td valign="top">:</td><td><div>10.160.1.235-16fbe1e5-5a1f-4890-a110-1b56f66eb6a0<table><tr><td style="font-weight:bold;vertical-align:top">comment</td><td valign="top">:</td><td><div></div></td></tr><tr><td style="font-weight:bold;vertical-align:top">domain</td><td valign="top">:</td><td><div></div></td></tr><tr><td style="font-weight:bold;vertical-align:top">expires</td><td valign="top">:</td><td><div></div></td></tr><tr><td style="font-weight:bold;vertical-align:top">httponly</td><td valign="top">:</td><td><div></div></td></tr><tr><td style="font-weight:bold;vertical-align:top">max-age</td><td valign="top">:</td><td><div></div></td></tr><tr><td style="font-weight:bold;vertical-align:top">path</td><td valign="top">:</td><td><div></div></td></tr><tr><td style="font-weight:bold;vertical-align:top">secure</td><td valign="top">:</td><td><div></div></td></tr><tr><td style="font-weight:bold;vertical-align:top">version</td><td valign="top">:</td><td><div></div></td></tr></table></div></td></tr></table></div></td></tr><tr><td style="font-weight:bold;vertical-align:top">env</td><td valign="top">:</td><td><div><table><tr><td style="font-weight:bold;vertical-align:top">app_folders</td><td valign="top">:</td><td><div>set([&#x27;/home/www-data/web2py/applications/admin/&#x27;, &#x27;/home/www-data/web2py/applications/musicbrainz/&#x27;])</div></td></tr><tr><td style="font-weight:bold;vertical-align:top">applications_parent</td><td valign="top">:</td><td><div>/home/www-data/web2py</div></td></tr><tr><td style="font-weight:bold;vertical-align:top">content_length</td><td valign="top">:</td><td><div>383</div></td></tr><tr><td style="font-weight:bold;vertical-align:top">content_type</td><td valign="top">:</td><td><div>multipart/form-data; boundary=----WebKitFormBoundarywjGqHzJzCoTkXz35</div></td></tr><tr><td style="font-weight:bold;vertical-align:top">db_sessions</td><td valign="top">:</td><td><div>set([])</div></td></tr><tr><td style="font-weight:bold;vertical-align:top">debugging</td><td valign="top">:</td><td><div>True</div></td></tr><tr><td style="font-weight:bold;vertical-align:top">document_root</td><td valign="top">:</td><td><div>/etc/apache2/htdocs</div></td></tr><tr><td style="font-weight:bold;vertical-align:top">gateway_interface</td><td valign="top">:</td><td><div>CGI/1.1</div></td></tr><tr><td style="font-weight:bold;vertical-align:top">gluon_parent</td><td valign="top">:</td><td><div>/home/www-data/web2py</div></td></tr><tr><td style="font-weight:bold;vertical-align:top">http_accept</td><td valign="top">:</td><td><div>text/html,application/xhtml+xml,application/xml;q=0.9,*/*;q=0.8</div></td></tr><tr><td style="font-weight:bold;vertical-align:top">http_accept_encoding</td><td valign="top">:</td><td><div>gzip, deflate</div></td></tr><tr><td style="font-weight:bold;vertical-align:top">http_accept_language</td><td valign="top">:</td><td><div>en-us</div></td></tr><tr><td style="font-weight:bold;vertical-align:top">http_connection</td><td valign="top">:</td><td><div>keep-alive</div></td></tr><tr><td style="font-weight:bold;vertical-align:top">http_cookie</td><td valign="top">:</td><td><div>session_id_musicbrainz=10.160.1.235-16fbe1e5-5a1f-4890-a110-1b56f66eb6a0</div></td></tr><tr><td style="font-weight:bold;vertical-align:top">http_dnt</td><td valign="top">:</td><td><div>1</div></td></tr><tr><td style="font-weight:bold;vertical-align:top">http_host</td><td valign="top">:</td><td><div>10.160.1.93</div></td></tr><tr><td style="font-weight:bold;vertical-align:top">http_origin</td><td valign="top">:</td><td><div>http://10.160.1.93</div></td></tr><tr><td style="font-weight:bold;vertical-align:top">http_referer</td><td valign="top">:</td><td><div>http://10.160.1.93/musicbrainz/default/index</div></td></tr><tr><td style="font-weight:bold;vertical-align:top">http_user_agent</td><td valign="top">:</td><td><div>Mozilla/5.0 (Macintosh; Intel Mac OS X 10_7_5) AppleWebKit/536.28.10 (KHTML, like Gecko) Version/6.0.3 Safari/536.28.10</div></td></tr><tr><td style="font-weight:bold;vertical-align:top">is_jython</td><td valign="top">:</td><td><div>False</div></td></tr><tr><td style="font-weight:bold;vertical-align:top">is_pypy</td><td valign="top">:</td><td><div>False</div></td></tr><tr><td style="font-weight:bold;vertical-align:top">local_hosts</td><td valign="top">:</td><td><div><table><tr><td><div>::ffff:127.0.0.1</div></td></tr><tr><td><div>::1</div></td></tr><tr><td><div>localhost</div></td></tr><tr><td><div>pong</div></td></tr><tr><td><div>127.0.1.1</div></td></tr><tr><td><div>127.0.0.1</div></td></tr></table></div></td></tr><tr><td style="font-weight:bold;vertical-align:top">mod_wsgi_application_group</td><td valign="top">:</td><td><div>127.0.1.1|</div></td></tr><tr><td style="font-weight:bold;vertical-align:top">mod_wsgi_callable_object</td><td valign="top">:</td><td><div>application</div></td></tr><tr><td style="font-weight:bold;vertical-align:top">mod_wsgi_handler_script</td><td valign="top">:</td><td><div></div></td></tr><tr><td style="font-weight:bold;vertical-align:top">mod_wsgi_input_chunked</td><td valign="top">:</td><td><div>0</div></td></tr><tr><td style="font-weight:bold;vertical-align:top">mod_wsgi_listener_host</td><td valign="top">:</td><td><div></div></td></tr><tr><td style="font-weight:bold;vertical-align:top">mod_wsgi_listener_port</td><td valign="top">:</td><td><div>80</div></td></tr><tr><td style="font-weight:bold;vertical-align:top">mod_wsgi_process_group</td><td valign="top">:</td><td><div>web2py</div></td></tr><tr><td style="font-weight:bold;vertical-align:top">mod_wsgi_request_handler</td><td valign="top">:</td><td><div>wsgi-script</div></td></tr><tr><td style="font-weight:bold;vertical-align:top">mod_wsgi_script_reloading</td><td valign="top">:</td><td><div>1</div></td></tr><tr><td style="font-weight:bold;vertical-align:top">mod_wsgi_version</td><td valign="top">:</td><td><div><table><tr><td><div>3</div></td></tr><tr><td><div>3</div></td></tr></table></div></td></tr><tr><td style="font-weight:bold;vertical-align:top">path_info</td><td valign="top">:</td><td><div>/musicbrainz/default/index</div></td></tr><tr><td style="font-weight:bold;vertical-align:top">path_translated</td><td valign="top">:</td><td><div>/home/www-data/web2py/wsgihandler.py/musicbrainz/default/index</div></td></tr><tr><td style="font-weight:bold;vertical-align:top">query_string</td><td valign="top">:</td><td><div></div></td></tr><tr><td style="font-weight:bold;vertical-align:top">remote_addr</td><td valign="top">:</td><td><div>10.160.1.235</div></td></tr><tr><td style="font-weight:bold;vertical-align:top">remote_port</td><td valign="top">:</td><td><div>55059</div></td></tr><tr><td style="font-weight:bold;vertical-align:top">request_method</td><td valign="top">:</td><td><div>POST</div></td></tr><tr><td style="font-weight:bold;vertical-align:top">request_uri</td><td valign="top">:</td><td><div>/musicbrainz/default/index</div></td></tr><tr><td style="font-weight:bold;vertical-align:top">script_filename</td><td valign="top">:</td><td><div>/home/www-data/web2py/wsgihandler.py</div></td></tr><tr><td style="font-weight:bold;vertical-align:top">script_name</td><td valign="top">:</td><td><div></div></td></tr><tr><td style="font-weight:bold;vertical-align:top">server_addr</td><td valign="top">:</td><td><div>10.160.1.93</div></td></tr><tr><td style="font-weight:bold;vertical-align:top">server_admin</td><td valign="top">:</td><td><div>[no address given]</div></td></tr><tr><td style="font-weight:bold;vertical-align:top">server_name</td><td valign="top">:</td><td><div>10.160.1.93</div></td></tr><tr><td style="font-weight:bold;vertical-align:top">server_port</td><td valign="top">:</td><td><div>80</div></td></tr><tr><td style="font-weight:bold;vertical-align:top">server_protocol</td><td valign="top">:</td><td><div>HTTP/1.1</div></td></tr><tr><td style="font-weight:bold;vertical-align:top">server_signature</td><td valign="top">:</td><td><div>&lt;address&gt;Apache/2.2.22 (Ubuntu) Server at 10.160.1.93 Port 80&lt;/address&gt;\n</div></td></tr><tr><td style="font-weight:bold;vertical-align:top">server_software</td><td valign="top">:</td><td><div>Apache/2.2.22 (Ubuntu)</div></td></tr><tr><td style="font-weight:bold;vertical-align:top">web2py_path</td><td valign="top">:</td><td><div>/home/www-data/web2py</div></td></tr><tr><td style="font-weight:bold;vertical-align:top">web2py_version</td><td valign="top">:</td><td><div>2.4.6-stable+timestamp.2013.04.06.17.37.38</div></td></tr><tr><td style="font-weight:bold;vertical-align:top">wsgi_errors</td><td valign="top">:</td><td><div>&lt;mod_wsgi.Log object at 0xaa13f908&gt;</div></td></tr><tr><td style="font-weight:bold;vertical-align:top">wsgi_file_wrapper</td><td valign="top">:</td><td><div>&lt;built-in method file_wrapper of mod_wsgi.Adapter object at 0xb901b2f0&gt;</div></td></tr><tr><td style="font-weight:bold;vertical-align:top">wsgi_input</td><td valign="top">:</td><td><div>&lt;mod_wsgi.Input object at 0xaaf51098&gt;</div></td></tr><tr><td style="font-weight:bold;vertical-align:top">wsgi_multiprocess</td><td valign="top">:</td><td><div>False</div></td></tr><tr><td style="font-weight:bold;vertical-align:top">wsgi_multithread</td><td valign="top">:</td><td><div>True</div></td></tr><tr><td style="font-weight:bold;vertical-align:top">wsgi_run_once</td><td valign="top">:</td><td><div>False</div></td></tr><tr><td style="font-weight:bold;vertical-align:top">wsgi_url_scheme</td><td valign="top">:</td><td><div>http</div></td></tr><tr><td style="font-weight:bold;vertical-align:top">wsgi_version</td><td valign="top">:</td><td><div><table><tr><td><div>1</div></td></tr><tr><td><div>1</div></td></tr></table></div></td></tr></table></div></td></tr><tr><td style="font-weight:bold;vertical-align:top">extension</td><td valign="top">:</td><td><div>html</div></td></tr><tr><td style="font-weight:bold;vertical-align:top">folder</td><td valign="top">:</td><td><div>/home/www-data/web2py/applications/musicbrainz/</div></td></tr><tr><td style="font-weight:bold;vertical-align:top">function</td><td valign="top">:</td><td><div>index</div></td></tr><tr><td style="font-weight:bold;vertical-align:top">get_vars</td><td valign="top">:</td><td><div><table></table></div></td></tr><tr><td style="font-weight:bold;vertical-align:top">global_settings</td><td valign="top">:</td><td><div><table><tr><td style="font-weight:bold;vertical-align:top">app_folders</td><td valign="top">:</td><td><div>set([&#x27;/home/www-data/web2py/applications/admin/&#x27;, &#x27;/home/www-data/web2py/applications/musicbrainz/&#x27;])</div></td></tr><tr><td style="font-weight:bold;vertical-align:top">applications_parent</td><td valign="top">:</td><td><div>/home/www-data/web2py</div></td></tr><tr><td style="font-weight:bold;vertical-align:top">db_sessions</td><td valign="top">:</td><td><div>set([])</div></td></tr><tr><td style="font-weight:bold;vertical-align:top">debugging</td><td valign="top">:</td><td><div>True</div></td></tr><tr><td style="font-weight:bold;vertical-align:top">gluon_parent</td><td valign="top">:</td><td><div>/home/www-data/web2py</div></td></tr><tr><td style="font-weight:bold;vertical-align:top">is_jython</td><td valign="top">:</td><td><div>False</div></td></tr><tr><td style="font-weight:bold;vertical-align:top">is_pypy</td><td valign="top">:</td><td><div>False</div></td></tr><tr><td style="font-weight:bold;vertical-align:top">local_hosts</td><td valign="top">:</td><td><div><table><tr><td><div>::ffff:127.0.0.1</div></td></tr><tr><td><div>::1</div></td></tr><tr><td><div>localhost</div></td></tr><tr><td><div>pong</div></td></tr><tr><td><div>127.0.1.1</div></td></tr><tr><td><div>127.0.0.1</div></td></tr></table></div></td></tr><tr><td style="font-weight:bold;vertical-align:top">web2py_version</td><td valign="top">:</td><td><div>2.4.6-stable+timestamp.2013.04.06.17.37.38</div></td></tr></table></div></td></tr><tr><td style="font-weight:bold;vertical-align:top">is_https</td><td valign="top">:</td><td><div>False</div></td></tr><tr><td style="font-weight:bold;vertical-align:top">is_local</td><td valign="top">:</td><td><div>False</div></td></tr><tr><td style="font-weight:bold;vertical-align:top">is_restful</td><td valign="top">:</td><td><div>False</div></td></tr><tr><td style="font-weight:bold;vertical-align:top">now</td><td valign="top">:</td><td><div>datetime.datetime(2013, 4, 25, 13, 4, 47, 956)</div></td></tr><tr><td style="font-weight:bold;vertical-align:top">post_vars</td><td valign="top">:</td><td><div><table><tr><td style="font-weight:bold;vertical-align:top">search_term</td><td valign="top">:</td><td><div>nirvana</div></td></tr></table></div></td></tr><tr><td style="font-weight:bold;vertical-align:top">raw_args</td><td valign="top">:</td><td><div></div></td></tr><tr><td style="font-weight:bold;vertical-align:top">raw_extension</td><td valign="top">:</td><td><div>None</div></td></tr><tr><td style="font-weight:bold;vertical-align:top">url</td><td valign="top">:</td><td><div>/musicbrainz/default/index</div></td></tr><tr><td style="font-weight:bold;vertical-align:top">utcnow</td><td valign="top">:</td><td><div>datetime.datetime(2013, 4, 25, 7, 34, 47, 1003)</div></td></tr><tr><td style="font-weight:bold;vertical-align:top">uuid</td><td valign="top">:</td><td><div>musicbrainz/10.160.1.235.2013-04-25.13-04-47.d7728144-fa01-438a-b44a-421b2d92e3aa</div></td></tr><tr><td style="font-weight:bold;vertical-align:top">vars</td><td valign="top">:</td><td><div><table><tr><td style="font-weight:bold;vertical-align:top">search_term</td><td valign="top">:</td><td><div>nirvana</div></td></tr></table></div></td></tr><tr><td style="font-weight:bold;vertical-align:top">wsgi</td><td valign="top">:</td><td><div><table><tr><td style="font-weight:bold;vertical-align:top">environ</td><td valign="top">:</td><td><div><table><tr><td style="font-weight:bold;vertical-align:top">CONTENT_LENGTH</td><td valign="top">:</td><td><div>383</div></td></tr><tr><td style="font-weight:bold;vertical-align:top">CONTENT_TYPE</td><td valign="top">:</td><td><div>multipart/form-data; boundary=----WebKitFormBoundarywjGqHzJzCoTkXz35</div></td></tr><tr><td style="font-weight:bold;vertical-align:top">DOCUMENT_ROOT</td><td valign="top">:</td><td><div>/etc/apache2/htdocs</div></td></tr><tr><td style="font-weight:bold;vertical-align:top">GATEWAY_INTERFACE</td><td valign="top">:</td><td><div>CGI/1.1</div></td></tr><tr><td style="font-weight:bold;vertical-align:top">HTTP_ACCEPT</td><td valign="top">:</td><td><div>text/html,application/xhtml+xml,application/xml;q=0.9,*/*;q=0.8</div></td></tr><tr><td style="font-weight:bold;vertical-align:top">HTTP_ACCEPT_ENCODING</td><td valign="top">:</td><td><div>gzip, deflate</div></td></tr><tr><td style="font-weight:bold;vertical-align:top">HTTP_ACCEPT_LANGUAGE</td><td valign="top">:</td><td><div>en-us</div></td></tr><tr><td style="font-weight:bold;vertical-align:top">HTTP_CONNECTION</td><td valign="top">:</td><td><div>keep-alive</div></td></tr><tr><td style="font-weight:bold;vertical-align:top">HTTP_COOKIE</td><td valign="top">:</td><td><div>session_id_musicbrainz=10.160.1.235-16fbe1e5-5a1f-4890-a110-1b56f66eb6a0</div></td></tr><tr><td style="font-weight:bold;vertical-align:top">HTTP_DNT</td><td valign="top">:</td><td><div>1</div></td></tr><tr><td style="font-weight:bold;vertical-align:top">HTTP_HOST</td><td valign="top">:</td><td><div>10.160.1.93</div></td></tr><tr><td style="font-weight:bold;vertical-align:top">HTTP_ORIGIN</td><td valign="top">:</td><td><div>http://10.160.1.93</div></td></tr><tr><td style="font-weight:bold;vertical-align:top">HTTP_REFERER</td><td valign="top">:</td><td><div>http://10.160.1.93/musicbrainz/default/index</div></td></tr><tr><td style="font-weight:bold;vertical-align:top">HTTP_USER_AGENT</td><td valign="top">:</td><td><div>Mozilla/5.0 (Macintosh; Intel Mac OS X 10_7_5) AppleWebKit/536.28.10 (KHTML, like Gecko) Version/6.0.3 Safari/536.28.10</div></td></tr><tr><td style="font-weight:bold;vertical-align:top">PATH_INFO</td><td valign="top">:</td><td><div>/musicbrainz/default/index</div></td></tr><tr><td style="font-weight:bold;vertical-align:top">PATH_TRANSLATED</td><td valign="top">:</td><td><div>/home/www-data/web2py/wsgihandler.py/musicbrainz/default/index</div></td></tr><tr><td style="font-weight:bold;vertical-align:top">QUERY_STRING</td><td valign="top">:</td><td><div></div></td></tr><tr><td style="font-weight:bold;vertical-align:top">REMOTE_ADDR</td><td valign="top">:</td><td><div>10.160.1.235</div></td></tr><tr><td style="font-weight:bold;vertical-align:top">REMOTE_PORT</td><td valign="top">:</td><td><div>55059</div></td></tr><tr><td style="font-weight:bold;vertical-align:top">REQUEST_METHOD</td><td valign="top">:</td><td><div>POST</div></td></tr><tr><td style="font-weight:bold;vertical-align:top">REQUEST_URI</td><td valign="top">:</td><td><div>/musicbrainz/default/index</div></td></tr><tr><td style="font-weight:bold;vertical-align:top">SCRIPT_FILENAME</td><td valign="top">:</td><td><div>/home/www-data/web2py/wsgihandler.py</div></td></tr><tr><td style="font-weight:bold;vertical-align:top">SCRIPT_NAME</td><td valign="top">:</td><td><div></div></td></tr><tr><td style="font-weight:bold;vertical-align:top">SERVER_ADDR</td><td valign="top">:</td><td><div>10.160.1.93</div></td></tr><tr><td style="font-weight:bold;vertical-align:top">SERVER_ADMIN</td><td valign="top">:</td><td><div>[no address given]</div></td></tr><tr><td style="font-weight:bold;vertical-align:top">SERVER_NAME</td><td valign="top">:</td><td><div>10.160.1.93</div></td></tr><tr><td style="font-weight:bold;vertical-align:top">SERVER_PORT</td><td valign="top">:</td><td><div>80</div></td></tr><tr><td style="font-weight:bold;vertical-align:top">SERVER_PROTOCOL</td><td valign="top">:</td><td><div>HTTP/1.1</div></td></tr><tr><td style="font-weight:bold;vertical-align:top">SERVER_SIGNATURE</td><td valign="top">:</td><td><div>&lt;address&gt;Apache/2.2.22 (Ubuntu) Server at 10.160.1.93 Port 80&lt;/address&gt;\n</div></td></tr><tr><td style="font-weight:bold;vertical-align:top">SERVER_SOFTWARE</td><td valign="top">:</td><td><div>Apache/2.2.22 (Ubuntu)</div></td></tr><tr><td style="font-weight:bold;vertical-align:top">mod_wsgi.application_group</td><td valign="top">:</td><td><div>127.0.1.1|</div></td></tr><tr><td style="font-weight:bold;vertical-align:top">mod_wsgi.callable_object</td><td valign="top">:</td><td><div>application</div></td></tr><tr><td style="font-weight:bold;vertical-align:top">mod_wsgi.handler_script</td><td valign="top">:</td><td><div></div></td></tr><tr><td style="font-weight:bold;vertical-align:top">mod_wsgi.input_chunked</td><td valign="top">:</td><td><div>0</div></td></tr><tr><td style="font-weight:bold;vertical-align:top">mod_wsgi.listener_host</td><td valign="top">:</td><td><div></div></td></tr><tr><td style="font-weight:bold;vertical-align:top">mod_wsgi.listener_port</td><td valign="top">:</td><td><div>80</div></td></tr><tr><td style="font-weight:bold;vertical-align:top">mod_wsgi.process_group</td><td valign="top">:</td><td><div>web2py</div></td></tr><tr><td style="font-weight:bold;vertical-align:top">mod_wsgi.request_handler</td><td valign="top">:</td><td><div>wsgi-script</div></td></tr><tr><td style="font-weight:bold;vertical-align:top">mod_wsgi.script_reloading</td><td valign="top">:</td><td><div>1</div></td></tr><tr><td style="font-weight:bold;vertical-align:top">mod_wsgi.version</td><td valign="top">:</td><td><div><table><tr><td><div>3</div></td></tr><tr><td><div>3</div></td></tr></table></div></td></tr><tr><td style="font-weight:bold;vertical-align:top">wsgi.errors</td><td valign="top">:</td><td><div>&lt;mod_wsgi.Log object at 0xaa13f908&gt;</div></td></tr><tr><td style="font-weight:bold;vertical-align:top">wsgi.file_wrapper</td><td valign="top">:</td><td><div>&lt;built-in method file_wrapper of mod_wsgi.Adapter object at 0xb901b2f0&gt;</div></td></tr><tr><td style="font-weight:bold;vertical-align:top">wsgi.input</td><td valign="top">:</td><td><div>&lt;open file &#x27;&lt;fdopen&gt;&#x27;, mode &#x27;w+b&#x27; at 0xa9f05650&gt;</div></td></tr><tr><td style="font-weight:bold;vertical-align:top">wsgi.multiprocess</td><td valign="top">:</td><td><div>False</div></td></tr><tr><td style="font-weight:bold;vertical-align:top">wsgi.multithread</td><td valign="top">:</td><td><div>True</div></td></tr><tr><td style="font-weight:bold;vertical-align:top">wsgi.run_once</td><td valign="top">:</td><td><div>False</div></td></tr><tr><td style="font-weight:bold;vertical-align:top">wsgi.url_scheme</td><td valign="top">:</td><td><div>http</div></td></tr><tr><td style="font-weight:bold;vertical-align:top">wsgi.version</td><td valign="top">:</td><td><div>1</div></td></tr></table></div></td></tr></table></div></td></tr></table></div>'
tRp70
sS'frames'
p71
(lp72
(dp73
S'file'
p74
S'/home/www-data/web2py/gluon/restricted.py'
p75
sS'dump'
p76
(dp77
S'code'
p78
S"'# -*- coding: utf-8 -*-\\n# this file is released ...=crud())\\n\\nresponse._vars=response._caller(index)\\n'"
p79
sS'layer'
p80
S"'/home/www-data/web2py/applications/musicbrainz/controllers/default.py'"
p81
sS'global compile2'
p82
S'<function compile2>'
p83
sS'ccode'
p84
S'undefined'
p85
ssS'lnum'
p86
I211
sS'lines'
p87
(dp88
I206
S"    environment['__name__'] = '__restricted__'"
p89
sI207
S'    try:'
p90
sI208
S'        if isinstance(code, types.CodeType):'
p91
sI209
S'            ccode = code'
p92
sI210
S'        else:'
p93
sI211
S'            ccode = compile2(code, layer)'
p94
sI212
S'        exec ccode in environment'
p95
sI213
S'    except HTTP:'
p96
sI214
S'        raise'
p97
sI215
S'    except RestrictedError:'
p98
ssS'call'
p99
S"(code='# -*- coding: utf-8 -*-\\n# this file is released ...=crud())\\n\\nresponse._vars=response._caller(index)\\n', environment={'A': <class 'gluon.html.A'>, 'ANY_OF': <class 'gluon.validators.ANY_OF'>, 'Auth': <class 'gluon.tools.Auth'>, 'B': <class 'gluon.html.B'>, 'BEAUTIFY': <class 'gluon.html.BEAUTIFY'>, 'BODY': <class 'gluon.html.BODY'>, 'BR': <class 'gluon.html.BR'>, 'BUTTON': <class 'gluon.html.BUTTON'>, 'CAT': <class 'gluon.html.CAT'>, 'CENTER': <class 'gluon.html.CENTER'>, ...}, layer='/home/www-data/web2py/applications/musicbrainz/controllers/default.py')"
p100
sS'func'
p101
S'restricted'
p102
sa(dp103
g74
S'/home/www-data/web2py/gluon/restricted.py'
p104
sg76
(dp105
S'builtincompile'
p106
S'<built-in function compile>'
p107
sS'code'
p108
S"'# -*- coding: utf-8 -*-\\n# this file is released ...=crud())\\n\\nresponse._vars=response._caller(index)\\n'"
p109
sS'code.rstrip'
p110
S'<built-in method rstrip of str object>'
p111
sS').replace'
p112
g85
sS'layer'
p113
S"'/home/www-data/web2py/applications/musicbrainz/controllers/default.py'"
p114
ssg86
I194
sg87
(dp115
I192
S"    The +'\\n' is necessary else compile fails when code ends in a comment."
p116
sI193
S'    """'
p117
sI194
S"    return compile(code.rstrip().replace('\\r\\n', '\\n') + '\\n', layer, 'exec')"
p118
sI195
S''
sI196
S''
sI197
S"def restricted(code, environment=None, layer='Unknown'):"
p119
sI198
S'    """'
p120
sI189
S''
sI190
S'def compile2(code, layer):'
p121
sI191
S'    """'
p122
ssg99
S"(code='# -*- coding: utf-8 -*-\\n# this file is released ...=crud())\\n\\nresponse._vars=response._caller(index)\\n', layer='/home/www-data/web2py/applications/musicbrainz/controllers/default.py')"
p123
sg101
S'compile2'
p124
sasS'pyver'
p125
S'Python 2.7.3: /usr/bin/python (prefix: /usr)'
p126
sS'session'
p127
g69
(S's\x1a\x00\x00\x00<div><table></table></div>'
tRp128
sS'etype'
p129
S"<type 'exceptions.SyntaxError'>"
p130
sS'date'
p131
S'Thu Apr 25 13:04:47 2013'
p132
sS'response'
p133
g69
(S's\xad\x1a\x00\x00<div><table><tr><td style="font-weight:bold;vertical-align:top">body</td><td valign="top">:</td><td><div>&lt;cStringIO.StringO object at 0xaa87a220&gt;</div></td></tr><tr><td style="font-weight:bold;vertical-align:top">cookies</td><td valign="top">:</td><td><div><table><tr><td style="font-weight:bold;vertical-align:top">session_id_musicbrainz</td><td valign="top">:</td><td><div>10.160.1.235-16fbe1e5-5a1f-4890-a110-1b56f66eb6a0<table><tr><td style="font-weight:bold;vertical-align:top">comment</td><td valign="top">:</td><td><div></div></td></tr><tr><td style="font-weight:bold;vertical-align:top">domain</td><td valign="top">:</td><td><div></div></td></tr><tr><td style="font-weight:bold;vertical-align:top">expires</td><td valign="top">:</td><td><div></div></td></tr><tr><td style="font-weight:bold;vertical-align:top">httponly</td><td valign="top">:</td><td><div></div></td></tr><tr><td style="font-weight:bold;vertical-align:top">max-age</td><td valign="top">:</td><td><div></div></td></tr><tr><td style="font-weight:bold;vertical-align:top">path</td><td valign="top">:</td><td><div>/</div></td></tr><tr><td style="font-weight:bold;vertical-align:top">secure</td><td valign="top">:</td><td><div></div></td></tr><tr><td style="font-weight:bold;vertical-align:top">version</td><td valign="top">:</td><td><div></div></td></tr></table></div></td></tr></table></div></td></tr><tr><td style="font-weight:bold;vertical-align:top">delimiters</td><td valign="top">:</td><td><div><table><tr><td><div>{{</div></td></tr><tr><td><div>}}</div></td></tr></table></div></td></tr><tr><td style="font-weight:bold;vertical-align:top">files</td><td valign="top">:</td><td><div><table></table></div></td></tr><tr><td style="font-weight:bold;vertical-align:top">flash</td><td valign="top">:</td><td><div></div></td></tr><tr><td style="font-weight:bold;vertical-align:top">generic_patterns</td><td valign="top">:</td><td><div><table></table></div></td></tr><tr><td style="font-weight:bold;vertical-align:top">google_analytics_id</td><td valign="top">:</td><td><div>None</div></td></tr><tr><td style="font-weight:bold;vertical-align:top">headers</td><td valign="top">:</td><td><div><table><tr><td style="font-weight:bold;vertical-align:top">X-Powered-By</td><td valign="top">:</td><td><div>web2py</div></td></tr></table></div></td></tr><tr><td style="font-weight:bold;vertical-align:top">logo</td><td valign="top">:</td><td><div><a class="brand" href="/musicbrainz/default/index"><b>MusicBrainz</b>&trade;&nbsp;</a></div></td></tr><tr><td style="font-weight:bold;vertical-align:top">menu</td><td valign="top">:</td><td><div><table><tr><td><div><table><tr><td><div>Search</div></td></tr><tr><td><div>False</div></td></tr><tr><td><div>/musicbrainz/default/index</div></td></tr></table></div></td></tr><tr><td><div><table><tr><td><div>Advanced Search</div></td></tr><tr><td><div>False</div></td></tr><tr><td><div>/musicbrainz/default/index</div></td></tr><tr><td><div><table><tr><td><div><table><tr><td><div>For Artists</div></td></tr><tr><td><div>False</div></td></tr><tr><td><div>/musicbrainz/default/artistsearch</div></td></tr></table></div></td></tr><tr><td><div><table><tr><td><div>For Albums</div></td></tr><tr><td><div>False</div></td></tr><tr><td><div>/musicbrainz/default/albumsearch</div></td></tr></table></div></td></tr><tr><td><div><table><tr><td><div>For Songs</div></td></tr><tr><td><div>False</div></td></tr><tr><td><div>/musicbrainz/default/songsearch</div></td></tr></table></div></td></tr></table></div></td></tr></table></div></td></tr><tr><td><div><table><tr><td><div>Playlists</div></td></tr><tr><td><div>False</div></td></tr><tr><td><div>/musicbrainz/default/playlist</div></td></tr></table></div></td></tr></table></div></td></tr><tr><td style="font-weight:bold;vertical-align:top">meta</td><td valign="top">:</td><td><div><table><tr><td style="font-weight:bold;vertical-align:top">author</td><td valign="top">:</td><td><div>Devashish Tyagi &lt;devashishrocker@gmail.com&gt;</div></td></tr><tr><td style="font-weight:bold;vertical-align:top">description</td><td valign="top">:</td><td><div>An Application to explore musicbrainz database</div></td></tr><tr><td style="font-weight:bold;vertical-align:top">generator</td><td valign="top">:</td><td><div>Web2py Web Framework</div></td></tr><tr><td style="font-weight:bold;vertical-align:top">keywords</td><td valign="top">:</td><td><div>web2py, python, framework</div></td></tr></table></div></td></tr><tr><td style="font-weight:bold;vertical-align:top">models_to_run</td><td valign="top">:</td><td><div><table><tr><td><div>^\\w+\\.py$</div></td></tr><tr><td><div>^default/\\w+\\.py$</div></td></tr><tr><td><div>^default/index/\\w+\\.py$</div></td></tr></table></div></td></tr><tr><td style="font-weight:bold;vertical-align:top">postprocessing</td><td valign="top">:</td><td><div><table></table></div></td></tr><tr><td style="font-weight:bold;vertical-align:top">session_cookie_expires</td><td valign="top">:</td><td><div>None</div></td></tr><tr><td style="font-weight:bold;vertical-align:top">session_data_name</td><td valign="top">:</td><td><div>session_data_musicbrainz</div></td></tr><tr><td style="font-weight:bold;vertical-align:top">session_file</td><td valign="top">:</td><td><div>&lt;open file &#x27;/home/www-data/web2py/applications/musicbrainz/sessions/10.160.1.235-16fbe1e5-5a1f-4890-a110-1b56f66eb6a0&#x27;, mode &#x27;rb+&#x27; at 0xa9f055f8&gt;</div></td></tr><tr><td style="font-weight:bold;vertical-align:top">session_filename</td><td valign="top">:</td><td><div>/home/www-data/web2py/applications/musicbrainz/sessions/10.160.1.235-16fbe1e5-5a1f-4890-a110-1b56f66eb6a0</div></td></tr><tr><td style="font-weight:bold;vertical-align:top">session_id</td><td valign="top">:</td><td><div>10.160.1.235-16fbe1e5-5a1f-4890-a110-1b56f66eb6a0</div></td></tr><tr><td style="font-weight:bold;vertical-align:top">session_id_name</td><td valign="top">:</td><td><div>session_id_musicbrainz</div></td></tr><tr><td style="font-weight:bold;vertical-align:top">session_locked</td><td valign="top">:</td><td><div>True</div></td></tr><tr><td style="font-weight:bold;vertical-align:top">session_new</td><td valign="top">:</td><td><div>False</div></td></tr><tr><td style="font-weight:bold;vertical-align:top">session_storage_type</td><td valign="top">:</td><td><div>file</div></td></tr><tr><td style="font-weight:bold;vertical-align:top">status</td><td valign="top">:</td><td><div>200</div></td></tr><tr><td style="font-weight:bold;vertical-align:top">subtitle</td><td valign="top">:</td><td><div>Discover Music</div></td></tr><tr><td style="font-weight:bold;vertical-align:top">title</td><td valign="top">:</td><td><div>Musicbrainz</div></td></tr><tr><td style="font-weight:bold;vertical-align:top">view</td><td valign="top">:</td><td><div>default/index.html</div></td></tr></table></div>'
tRp134
sS'locals'
p135
(dp136
g4
S"'/home/www-data/web2py/applications/musicbrainz/controllers/default.py'"
p137
sg6
S"'# -*- coding: utf-8 -*-\\n# this file is released ...=crud())\\n\\nresponse._vars=response._caller(index)\\n'"
p138
sssS'traceback'
p139
S'Traceback (most recent call last):\n  File "/home/www-data/web2py/gluon/restricted.py", line 211, in restricted\n    ccode = compile2(code, layer)\n  File "/home/www-data/web2py/gluon/restricted.py", line 194, in compile2\n    return compile(code.rstrip().replace(\'\\r\\n\', \'\\n\') + \'\\n\', layer, \'exec\')\n  File "/home/www-data/web2py/applications/musicbrainz/controllers/default.py", line 305\n    with open(os.path.join(request.folder,\'uploads\',filename))\n                                                             ^\nSyntaxError: invalid syntax\n'
p140
s.