(dp1
S'output'
p2
S"<type 'exceptions.NameError'> global name 'covertarurl' is not defined"
p3
sS'layer'
p4
S'/home/www-data/web2py/applications/musicbrainz/controllers/default.py'
p5
sS'code'
p6
S'# -*- coding: utf-8 -*-\n# this file is released under public domain and you can use without limitations\n\n#########################################################################\n## This is a deafult controller\n## - index is the default action controller. Performs the search functionality\n## - album is used to render the release group page\n## - artist is used to render the artist information page\n## - release is used to render the information about a single release\n## - playlist allows the user to add or delete playlists\n## - user is required for authentication and authorization\n## - download is for downloading files uploaded in the db (does streaming)\n## - call exposes all registered services (none by default)\n#########################################################################\n\nimport datetime\nimport httplib\nimport pprint\nimport json\nimport urllib2, urllib\nfrom gluon.debug import dbg\n\n########### INDEX CONTROLLER ##############\ndef index():\n\t"""\n\tInitializes reponse variables.\n\tShow the search bar which enables the user to search for music, artists,\n\talbums and records. On clicking the search tab, the user will be redirected\n\tto search action.\n\tThis page also displays featured artists, albums, music.\n\t"""\n\tform = FORM(\'\',\n\t\t\t\tINPUT(_name=\'search_term\', requires = IS_NOT_EMPTY(), _class=\'input-large search-query\', \n\t\t\t\t\t_placeholder=\'Search for music\', _autocomplete="off"),\n\t\t\t\tINPUT(_type=\'submit\', _class=\'btn\', _value=\'Search\'), _class=\'form-search\')\n\tif form.process().accepted:\n\t\tredirect(URL(\'search\', vars=dict(search_term=request.vars.search_term)))\n\tfeatured_songs = \'Something will be added here\'\n\tfeatured_artists = \'Something will be added here\'\n\tfeatured_albums = \'Something will be added here\'\n\treturn dict(form=form, featured_songs=featured_songs, featured_albums=featured_albums, featured_artists=featured_artists)\n\n########### SEARCH CONTROLLER ##############\ndef search():\n\t"""\n\tReturns search results of the query obtained in request args. It Returns\n\tfour seperate variables containing results for artists, music, albums and\n\trecords.\n\t"""\n\tif not request.vars.search_term:\n\t\tredirect(URL(\'index\'))\n\tterm = request.vars.search_term\n\torigterm = term\n\tterm = term.replace(\' \',\'|\')\n\tartists = db.executesql("select distinct(m1.id), m1.art_name, m1.artist_type, m1.country, m1.b_year,m1.b_month,m1.b_date,m1.e_year,m1.e_month,m1.e_day,ts_rank(to_tsvector(m1.art_name),to_tsquery(\'"+term+"\')) rank from art_info m1 where to_tsvector(\'english\',m1.art_name) @@ to_tsquery(\'"+term+"\') order by rank desc limit 20;")\n\talbums = db.executesql("select distinct(m1.id),m2.name,m1.art_id,m1.art_name,m1.rel_type,m1.count,ts_rank(to_tsvector(m2.name),to_tsquery(\'"+term+"\')) rank from rel_art m1, release_name m2, release_group m3 where m3.name = m2.id and m3.id = m1.id and to_tsvector(\'english\',m2.name) @@ to_tsquery(\'"+term+"\') order by rank desc limit 20;")\n\tsongs = db.executesql("select m2.id, m1.name, m3.art_id, m3.art_name, m3.rel_id, m3.rel_name from track_name m1, recording m2, rec_rel_art m3 where m1.id = m2.name and m2.id = m3.rec_id and lower(m1.name) LIKE lower(\'%%"+origterm+"%%\') limit 20;")\n\treturn dict(songs=songs, albums=albums, artists=artists)\n\n########### ALBUM CONTROLLER ##############\ndef album():\n\t"""\n\tThis action is responsible for obtaining and returning all the information \n\trelated to a particular release group item. \n\t"""\n\tif not request.vars.id:\n\t\tredirect(URL(\'index\'))\n\tid = request.vars.id\n\treleasegroupname = db.executesql("select m1.name from release_name as m1, release_group as m2 where m1.id = m2.name and m2.id = "+id+";")\n\treleasegroup = db.executesql("select distinct(m2.id),m3.name,m5.name,m7.track_count,m2.date_year,m2.date_month,m2.date_day,m6.name,m2.barcode from release_group m1,release m2,release_name m3,medium m4,medium_format m5, country m6, tracklist m7 where m5.id = m4.format and m4.release = m2.id and m2.name = m3.id and m2.release_group = m1.id and m2.country = m6.id and m4.tracklist = m7.id and m1.id = "+id+";")\n\turls = db.executesql("select m2.url from l_release_group_url m1, url m2 where m1.entity1 = m2.id and m1.entity0 = "+id+";")\n\tlinks = []\n\twiki = ""\n\tfor url in urls:\n\t\tif "wikipedia" in url[0]:\n\t\t\twiki = url[0]\n\t\telse:\n\t\t\tlinks.append(url[0])\n\n\treturn dict(releasegroupname=releasegroupname, releasegroup=releasegroup, links=links, wiki=wiki)\n\n########### RELEASE CONTROLLER ##############\ndef release():\n\t"""\n\tThis action is reponsible  for displaying the displaying the tracklist\n\tof a particular release\n\t"""\n\tif not request.vars.id:\n\t\tredirect(URL(\'index\'))\n\tid = request.vars.id\n\treleasename = db.executesql("select m1.name from release_name as m1, release as m2 where m1.id = m2.name and m2.id = "+id+";")\n\ttracklist = db.executesql("select m4.id, m5.name, m4.position, m4.length from release m1,medium m2,tracklist m3,track m4,track_name m5 where m5.id = m4.name and m4.tracklist = m3.id and m3.id = m2.tracklist and m2.release = m1.id and m1.id = "+id+" order by m4.position;")\n\turls = db.executesql("select m2.url from l_release_url m1, url m2 where m1.entity1 = m2.id and m1.entity0 = "+id+";")\n\tmbid = db.executesql("select m1.gid from release m1 where m1.id = "+id+";")\n\t#try:\n\tproxy = urllib2.ProxyHandler({\'http\': \'http://cs5090240:phone01202767129@10.10.78.62:3128\'})\n\tauthentication = urllib2.HTTPBasicAuthHandler()\n\topener = urllib2.build_opener(proxy, authentication, urllib2.HTTPHandler)\n\turllib2.install_opener(opener)\n\tdestination = \'http://www.coverartarchive.org/release/\'+mbid[0][0]\n\t#dbg.set_trace()\n\treq = urllib2.Request(url=destination,data="")\n\tf = urllib2.urlopen(req)\n\t#dbg.set_trace()\n\tdata =json.load(f)\n\t#dbg.set_trace()\n\tcoverarturl = data[\'images\'][0][\'image\']\n\t\'\'\'\n\texcept:\n\t\tcoverarturl = ""\n\t\'\'\'\n\tlinks = []\n\twiki = ""\n\tfor url in urls:\n\t\tif "wikipedia" in url[0]:\n\t\t\twiki = url[0]\n\t\telse:\n\t\t\tlinks.append(url[0])\n\ttracklist1 = []\n\tfor row in tracklist:\n\t\trow1 = list(row)\n\t\tif (row1[3]):\n\t\t\td = datetime.datetime.fromtimestamp(int(row1[3])//1000)\n\t\t\trow1[3] = str(d.hour)+":"+str(d.minute)\n\t\telse:\n\t\t\trow1[3] = \'N/A\'\n\t\ttracklist1.append(row1)\n\tif auth.user:\n\t\tplaylists = db(db.playlists.user_id == auth.user.id).select()\n\telse:\n\t\tplaylists = None\n\treturn dict(tracklist=tracklist1, releasename=releasename, wiki=wiki, links=links, playlists=playlists, coverarturl=covertarurl)\n\n########### ARTIST CONTROLLER ##############\ndef artist():\n\t"""\n\tThis action is reponsible for displaying all the information related \n\tto an artist\n\t"""\n\tif not request.vars.id:\n\t\tredirect(URL(\'index\'))\n\tid = request.vars.id\n\tartistname = db.executesql("select m1.name from artist_name as m1, artist as m2 where m1.id = m2.name and m2.id = "+id+";")\n\turls = db.executesql("select distinct(m2.url) from l_artist_url m1, url m2 where m2.id = m1.entity1 and m1.entity0 = "+id+";")\n\tdiscography = db.executesql("select m4.name,m5.name,m3.id,m6.count from artist_credit_name m1, artist_credit m2,release_group m3,release_name m4, release_group_primary_type m5,rel_group_count m6 where m4.id = m3.name and m3.artist_credit = m2.id and m2.id = m1.artist_credit and m5.id = m3.type and m6.id = m3.id and m1.artist = "+id+";")\n\tlinks = []\n\twiki = ""\n\tfor url in urls:\n\t\tif "wikipedia" in url[0]:\n\t\t\twiki = url[0]\n\t\telse:\n\t\t\tlinks.append(url[0])\n\treturn dict(discography=discography, wiki=wiki, links=links, artistname=artistname)\n\n########### PLAYLIST CONTROLLER ##############\n@auth.requires_login()\ndef playlist():\n\tdb.playlists.user_id.default = auth.user.id\n\tform =  SQLFORM(db.playlists, labels={\'name\':\'Name\', \'description\':\'Description\', \'submit\':\'Add Playlist\'})\n\tif form.process().accepted:\n\t\tresponse.flash = \'Your playlists has been added.\'\n\tplaylists = db(db.playlists.user_id == auth.user.id).select()\n\treturn dict(playlists=playlists, form=form)\n\n########### DELETE PLAYLIST ################\n@auth.requires_login()\ndef deleteplaylist():\n\tif request.vars.id:\n\t\tdb(db.playlists.id == request.vars.id).delete()\n\treturn dict()\n\n########## ADD TO PLAYLIST ################\n@auth.requires_login()\ndef addtoplaylist():\n\tif request.vars:\n\t\tplaylistid = str(request.vars.playlistid)\n\t\ttrackid = str(request.vars.trackid)\n\t\tif not db.executesql("SELECT * FROM playlist_track where playlist_id="+playlistid+" AND track_id="+trackid+";"):\n\t\t\tdb.executesql("INSERT INTO playlist_track VALUES(" + playlistid + "," + trackid + ");")\n\treturn dict()\n\n########## PLAYLIST HOME ################\ndef playlisthome():\n\tif not request.vars.id:\n\t\tredirect(URL(\'index\'))\n\tid = request.vars.id\n\trecordings = db.executesql("select pr.playlist_id, pr.track_id, tn.name from playlist_track as pr, track as tk, track_name as tn where pr.playlist_id = "+id+" AND pr.track_id = tk.id AND tk.name = tn.id;")\n\tplaylist_info = db.executesql("select * from playlists where id = "+id+";")\n\treturn dict(recordings=recordings, playlist_info=playlist_info);\n\n########## DELETE TRACK FROM PLAYLIST ###########\ndef delete_track_from_playlist():\n\tif not (request.vars.pid and request.vars.tid):\n\t\tredirect(URL(\'index\'))\n\tpid = request.vars.pid\n\ttid = request.vars.tid\n\tdb.executesql("DELETE FROM playlist_track WHERE playlist_id="+pid+" AND track_id="+tid+";")\n\treturn dict()\n\ndef user():\n\t"""\n\texposes:\n\thttp://..../[app]/default/user/login\n\thttp://..../[app]/default/user/logout\n\thttp://..../[app]/default/user/register\n\thttp://..../[app]/default/user/profile\n\thttp://..../[app]/default/user/retrieve_password\n\thttp://..../[app]/default/user/change_password\n\tuse @auth.requires_login()\n\t\t@auth.requires_membership(\'group name\')\n\t\t@auth.requires_permission(\'read\',\'table name\',record_id)\n\tto decorate functions that need access control\n\t"""\n\treturn dict(form=auth())\n\n\ndef download():\n\t"""\n\tallows downloading of uploaded files\n\thttp://..../[app]/default/download/[filename]\n\t"""\n\treturn response.download(request, db)\n\n\ndef call():\n\t"""\n\texposes services. for example:\n\thttp://..../[app]/default/call/jsonrpc\n\tdecorate with @services.jsonrpc the functions to expose\n\tsupports xml, json, xmlrpc, jsonrpc, amfrpc, rss, csv\n\t"""\n\treturn service()\n\n\n@auth.requires_signature()\ndef data():\n\t"""\n\thttp://..../[app]/default/data/tables\n\thttp://..../[app]/default/data/create/[table]\n\thttp://..../[app]/default/data/read/[table]/[id]\n\thttp://..../[app]/default/data/update/[table]/[id]\n\thttp://..../[app]/default/data/delete/[table]/[id]\n\thttp://..../[app]/default/data/select/[table]\n\thttp://..../[app]/default/data/search/[table]\n\tbut URLs must be signed, i.e. linked with\n\t  A(\'table\',_href=URL(\'data/tables\',user_signature=True))\n\tor with the signed load operator\n\t  LOAD(\'default\',\'data.load\',args=\'tables\',ajax=True,user_signature=True)\n\t"""\n\treturn dict(form=crud())\n\nresponse._vars=response._caller(release)\n'
p7
sS'snapshot'
p8
(dp9
S'exception'
p10
(dp11
S'__hash__'
p12
S"<method-wrapper '__hash__' of exceptions.NameError object>"
p13
sS'__setattr__'
p14
S"<method-wrapper '__setattr__' of exceptions.NameError object>"
p15
sS'__reduce_ex__'
p16
S'<built-in method __reduce_ex__ of exceptions.NameError object>'
p17
sS'__getslice__'
p18
S"<method-wrapper '__getslice__' of exceptions.NameError object>"
p19
sS'__getitem__'
p20
S"<method-wrapper '__getitem__' of exceptions.NameError object>"
p21
sS'__setstate__'
p22
S'<built-in method __setstate__ of exceptions.NameError object>'
p23
sS'__reduce__'
p24
S'<built-in method __reduce__ of exceptions.NameError object>'
p25
sS'__str__'
p26
S"<method-wrapper '__str__' of exceptions.NameError object>"
p27
sS'__format__'
p28
S'<built-in method __format__ of exceptions.NameError object>'
p29
sS'__getattribute__'
p30
S"<method-wrapper '__getattribute__' of exceptions.NameError object>"
p31
sS'__class__'
p32
S"<type 'exceptions.NameError'>"
p33
sS'__unicode__'
p34
S'<built-in method __unicode__ of exceptions.NameError object>'
p35
sS'__delattr__'
p36
S"<method-wrapper '__delattr__' of exceptions.NameError object>"
p37
sS'__subclasshook__'
p38
S'<built-in method __subclasshook__ of type object>'
p39
sS'__repr__'
p40
S"<method-wrapper '__repr__' of exceptions.NameError object>"
p41
sS'args'
p42
S'("global name \'covertarurl\' is not defined",)'
p43
sS'__dict__'
p44
S'{}'
p45
sS'__sizeof__'
p46
S'<built-in method __sizeof__ of exceptions.NameError object>'
p47
sS'__doc__'
p48
S"'Name not found globally.'"
p49
sS'__init__'
p50
S"<method-wrapper '__init__' of exceptions.NameError object>"
p51
sS'__new__'
p52
S'<built-in method __new__ of type object>'
p53
ssS'evalue'
p54
S"global name 'covertarurl' is not defined"
p55
sS'request'
p56
cgluon.html
XML_unpickle
p57
(S's\xa3Y\x00\x00<div><table><tr><td style="font-weight:bold;vertical-align:top">ajax</td><td valign="top">:</td><td><div>False</div></td></tr><tr><td style="font-weight:bold;vertical-align:top">application</td><td valign="top">:</td><td><div>musicbrainz</div></td></tr><tr><td style="font-weight:bold;vertical-align:top">args</td><td valign="top">:</td><td><div><table></table></div></td></tr><tr><td style="font-weight:bold;vertical-align:top">body</td><td valign="top">:</td><td><div>&lt;cStringIO.StringO object at 0xaae73b60&gt;</div></td></tr><tr><td style="font-weight:bold;vertical-align:top">cid</td><td valign="top">:</td><td><div>None</div></td></tr><tr><td style="font-weight:bold;vertical-align:top">client</td><td valign="top">:</td><td><div>127.0.0.1</div></td></tr><tr><td style="font-weight:bold;vertical-align:top">controller</td><td valign="top">:</td><td><div>default</div></td></tr><tr><td style="font-weight:bold;vertical-align:top">cookies</td><td valign="top">:</td><td><div><table><tr><td style="font-weight:bold;vertical-align:top">session_id_admin</td><td valign="top">:</td><td><div>127.0.0.1-55ffdea2-36a6-4dc3-9176-b41244b4df52<table><tr><td style="font-weight:bold;vertical-align:top">comment</td><td valign="top">:</td><td><div></div></td></tr><tr><td style="font-weight:bold;vertical-align:top">domain</td><td valign="top">:</td><td><div></div></td></tr><tr><td style="font-weight:bold;vertical-align:top">expires</td><td valign="top">:</td><td><div></div></td></tr><tr><td style="font-weight:bold;vertical-align:top">httponly</td><td valign="top">:</td><td><div></div></td></tr><tr><td style="font-weight:bold;vertical-align:top">max-age</td><td valign="top">:</td><td><div></div></td></tr><tr><td style="font-weight:bold;vertical-align:top">path</td><td valign="top">:</td><td><div></div></td></tr><tr><td style="font-weight:bold;vertical-align:top">secure</td><td valign="top">:</td><td><div></div></td></tr><tr><td style="font-weight:bold;vertical-align:top">version</td><td valign="top">:</td><td><div></div></td></tr></table></div></td></tr><tr><td style="font-weight:bold;vertical-align:top">session_id_musicbrainz</td><td valign="top">:</td><td><div>127.0.0.1-cef46f10-7fe3-4161-8f04-f260945a4b1b<table><tr><td style="font-weight:bold;vertical-align:top">comment</td><td valign="top">:</td><td><div></div></td></tr><tr><td style="font-weight:bold;vertical-align:top">domain</td><td valign="top">:</td><td><div></div></td></tr><tr><td style="font-weight:bold;vertical-align:top">expires</td><td valign="top">:</td><td><div></div></td></tr><tr><td style="font-weight:bold;vertical-align:top">httponly</td><td valign="top">:</td><td><div></div></td></tr><tr><td style="font-weight:bold;vertical-align:top">max-age</td><td valign="top">:</td><td><div></div></td></tr><tr><td style="font-weight:bold;vertical-align:top">path</td><td valign="top">:</td><td><div></div></td></tr><tr><td style="font-weight:bold;vertical-align:top">secure</td><td valign="top">:</td><td><div></div></td></tr><tr><td style="font-weight:bold;vertical-align:top">version</td><td valign="top">:</td><td><div></div></td></tr></table></div></td></tr></table></div></td></tr><tr><td style="font-weight:bold;vertical-align:top">env</td><td valign="top">:</td><td><div><table><tr><td style="font-weight:bold;vertical-align:top">app_folders</td><td valign="top">:</td><td><div>set([&#x27;/home/www-data/web2py/applications/admin/&#x27;, &#x27;/home/www-data/web2py/applications/musicbrainz/&#x27;])</div></td></tr><tr><td style="font-weight:bold;vertical-align:top">applications_parent</td><td valign="top">:</td><td><div>/home/www-data/web2py</div></td></tr><tr><td style="font-weight:bold;vertical-align:top">db_sessions</td><td valign="top">:</td><td><div>set([])</div></td></tr><tr><td style="font-weight:bold;vertical-align:top">debugging</td><td valign="top">:</td><td><div>True</div></td></tr><tr><td style="font-weight:bold;vertical-align:top">document_root</td><td valign="top">:</td><td><div>/etc/apache2/htdocs</div></td></tr><tr><td style="font-weight:bold;vertical-align:top">gateway_interface</td><td valign="top">:</td><td><div>CGI/1.1</div></td></tr><tr><td style="font-weight:bold;vertical-align:top">gluon_parent</td><td valign="top">:</td><td><div>/home/www-data/web2py</div></td></tr><tr><td style="font-weight:bold;vertical-align:top">http_accept</td><td valign="top">:</td><td><div>text/html,application/xhtml+xml,application/xml;q=0.9,*/*;q=0.8</div></td></tr><tr><td style="font-weight:bold;vertical-align:top">http_accept_charset</td><td valign="top">:</td><td><div>ISO-8859-1,utf-8;q=0.7,*;q=0.3</div></td></tr><tr><td style="font-weight:bold;vertical-align:top">http_accept_encoding</td><td valign="top">:</td><td><div>gzip,deflate,sdch</div></td></tr><tr><td style="font-weight:bold;vertical-align:top">http_accept_language</td><td valign="top">:</td><td><div>en-US,en;q=0.8</div></td></tr><tr><td style="font-weight:bold;vertical-align:top">http_cache_control</td><td valign="top">:</td><td><div>max-age=0</div></td></tr><tr><td style="font-weight:bold;vertical-align:top">http_connection</td><td valign="top">:</td><td><div>keep-alive</div></td></tr><tr><td style="font-weight:bold;vertical-align:top">http_cookie</td><td valign="top">:</td><td><div>session_id_musicbrainz=127.0.0.1-cef46f10-7fe3-4161-8f04-f260945a4b1b; session_id_admin=127.0.0.1-55ffdea2-36a6-4dc3-9176-b41244b4df52</div></td></tr><tr><td style="font-weight:bold;vertical-align:top">http_host</td><td valign="top">:</td><td><div>localhost</div></td></tr><tr><td style="font-weight:bold;vertical-align:top">http_referer</td><td valign="top">:</td><td><div>https://localhost/musicbrainz/default/album?id=845327</div></td></tr><tr><td style="font-weight:bold;vertical-align:top">http_user_agent</td><td valign="top">:</td><td><div>Mozilla/5.0 (X11; Linux i686) AppleWebKit/537.17 (KHTML, like Gecko) Chrome/24.0.1312.52 Safari/537.17</div></td></tr><tr><td style="font-weight:bold;vertical-align:top">https</td><td valign="top">:</td><td><div>1</div></td></tr><tr><td style="font-weight:bold;vertical-align:top">is_jython</td><td valign="top">:</td><td><div>False</div></td></tr><tr><td style="font-weight:bold;vertical-align:top">is_pypy</td><td valign="top">:</td><td><div>False</div></td></tr><tr><td style="font-weight:bold;vertical-align:top">local_hosts</td><td valign="top">:</td><td><div><table><tr><td><div>::ffff:127.0.0.1</div></td></tr><tr><td><div>::1</div></td></tr><tr><td><div>localhost</div></td></tr><tr><td><div>pong</div></td></tr><tr><td><div>127.0.1.1</div></td></tr><tr><td><div>127.0.0.1</div></td></tr></table></div></td></tr><tr><td style="font-weight:bold;vertical-align:top">mod_wsgi_application_group</td><td valign="top">:</td><td><div>127.0.1.1|</div></td></tr><tr><td style="font-weight:bold;vertical-align:top">mod_wsgi_callable_object</td><td valign="top">:</td><td><div>application</div></td></tr><tr><td style="font-weight:bold;vertical-align:top">mod_wsgi_handler_script</td><td valign="top">:</td><td><div></div></td></tr><tr><td style="font-weight:bold;vertical-align:top">mod_wsgi_input_chunked</td><td valign="top">:</td><td><div>0</div></td></tr><tr><td style="font-weight:bold;vertical-align:top">mod_wsgi_listener_host</td><td valign="top">:</td><td><div></div></td></tr><tr><td style="font-weight:bold;vertical-align:top">mod_wsgi_listener_port</td><td valign="top">:</td><td><div>443</div></td></tr><tr><td style="font-weight:bold;vertical-align:top">mod_wsgi_process_group</td><td valign="top">:</td><td><div>web2py</div></td></tr><tr><td style="font-weight:bold;vertical-align:top">mod_wsgi_request_handler</td><td valign="top">:</td><td><div>wsgi-script</div></td></tr><tr><td style="font-weight:bold;vertical-align:top">mod_wsgi_script_reloading</td><td valign="top">:</td><td><div>1</div></td></tr><tr><td style="font-weight:bold;vertical-align:top">mod_wsgi_version</td><td valign="top">:</td><td><div><table><tr><td><div>3</div></td></tr><tr><td><div>3</div></td></tr></table></div></td></tr><tr><td style="font-weight:bold;vertical-align:top">path_info</td><td valign="top">:</td><td><div>/musicbrainz/default/release</div></td></tr><tr><td style="font-weight:bold;vertical-align:top">path_translated</td><td valign="top">:</td><td><div>/home/www-data/web2py/wsgihandler.py/musicbrainz/default/release</div></td></tr><tr><td style="font-weight:bold;vertical-align:top">query_string</td><td valign="top">:</td><td><div>id=548204</div></td></tr><tr><td style="font-weight:bold;vertical-align:top">remote_addr</td><td valign="top">:</td><td><div>127.0.0.1</div></td></tr><tr><td style="font-weight:bold;vertical-align:top">remote_port</td><td valign="top">:</td><td><div>50682</div></td></tr><tr><td style="font-weight:bold;vertical-align:top">request_method</td><td valign="top">:</td><td><div>GET</div></td></tr><tr><td style="font-weight:bold;vertical-align:top">request_uri</td><td valign="top">:</td><td><div>/musicbrainz/default/release?id=548204</div></td></tr><tr><td style="font-weight:bold;vertical-align:top">script_filename</td><td valign="top">:</td><td><div>/home/www-data/web2py/wsgihandler.py</div></td></tr><tr><td style="font-weight:bold;vertical-align:top">script_name</td><td valign="top">:</td><td><div></div></td></tr><tr><td style="font-weight:bold;vertical-align:top">server_addr</td><td valign="top">:</td><td><div>127.0.0.1</div></td></tr><tr><td style="font-weight:bold;vertical-align:top">server_admin</td><td valign="top">:</td><td><div>[no address given]</div></td></tr><tr><td style="font-weight:bold;vertical-align:top">server_name</td><td valign="top">:</td><td><div>localhost</div></td></tr><tr><td style="font-weight:bold;vertical-align:top">server_port</td><td valign="top">:</td><td><div>443</div></td></tr><tr><td style="font-weight:bold;vertical-align:top">server_protocol</td><td valign="top">:</td><td><div>HTTP/1.1</div></td></tr><tr><td style="font-weight:bold;vertical-align:top">server_signature</td><td valign="top">:</td><td><div>&lt;address&gt;Apache/2.2.22 (Ubuntu) Server at localhost Port 443&lt;/address&gt;\n</div></td></tr><tr><td style="font-weight:bold;vertical-align:top">server_software</td><td valign="top">:</td><td><div>Apache/2.2.22 (Ubuntu)</div></td></tr><tr><td style="font-weight:bold;vertical-align:top">ssl_tls_sni</td><td valign="top">:</td><td><div>localhost</div></td></tr><tr><td style="font-weight:bold;vertical-align:top">web2py_path</td><td valign="top">:</td><td><div>/home/www-data/web2py</div></td></tr><tr><td style="font-weight:bold;vertical-align:top">web2py_version</td><td valign="top">:</td><td><div>2.4.6-stable+timestamp.2013.04.06.17.37.38</div></td></tr><tr><td style="font-weight:bold;vertical-align:top">wsgi_errors</td><td valign="top">:</td><td><div>&lt;mod_wsgi.Log object at 0xaad262c8&gt;</div></td></tr><tr><td style="font-weight:bold;vertical-align:top">wsgi_file_wrapper</td><td valign="top">:</td><td><div>&lt;built-in method file_wrapper of mod_wsgi.Adapter object at 0xab253f98&gt;</div></td></tr><tr><td style="font-weight:bold;vertical-align:top">wsgi_input</td><td valign="top">:</td><td><div>&lt;mod_wsgi.Input object at 0xace51098&gt;</div></td></tr><tr><td style="font-weight:bold;vertical-align:top">wsgi_multiprocess</td><td valign="top">:</td><td><div>False</div></td></tr><tr><td style="font-weight:bold;vertical-align:top">wsgi_multithread</td><td valign="top">:</td><td><div>True</div></td></tr><tr><td style="font-weight:bold;vertical-align:top">wsgi_run_once</td><td valign="top">:</td><td><div>False</div></td></tr><tr><td style="font-weight:bold;vertical-align:top">wsgi_url_scheme</td><td valign="top">:</td><td><div>https</div></td></tr><tr><td style="font-weight:bold;vertical-align:top">wsgi_version</td><td valign="top">:</td><td><div><table><tr><td><div>1</div></td></tr><tr><td><div>1</div></td></tr></table></div></td></tr></table></div></td></tr><tr><td style="font-weight:bold;vertical-align:top">extension</td><td valign="top">:</td><td><div>html</div></td></tr><tr><td style="font-weight:bold;vertical-align:top">folder</td><td valign="top">:</td><td><div>/home/www-data/web2py/applications/musicbrainz/</div></td></tr><tr><td style="font-weight:bold;vertical-align:top">function</td><td valign="top">:</td><td><div>release</div></td></tr><tr><td style="font-weight:bold;vertical-align:top">get_vars</td><td valign="top">:</td><td><div><table><tr><td style="font-weight:bold;vertical-align:top">id</td><td valign="top">:</td><td><div>548204</div></td></tr></table></div></td></tr><tr><td style="font-weight:bold;vertical-align:top">global_settings</td><td valign="top">:</td><td><div><table><tr><td style="font-weight:bold;vertical-align:top">app_folders</td><td valign="top">:</td><td><div>set([&#x27;/home/www-data/web2py/applications/admin/&#x27;, &#x27;/home/www-data/web2py/applications/musicbrainz/&#x27;])</div></td></tr><tr><td style="font-weight:bold;vertical-align:top">applications_parent</td><td valign="top">:</td><td><div>/home/www-data/web2py</div></td></tr><tr><td style="font-weight:bold;vertical-align:top">db_sessions</td><td valign="top">:</td><td><div>set([])</div></td></tr><tr><td style="font-weight:bold;vertical-align:top">debugging</td><td valign="top">:</td><td><div>True</div></td></tr><tr><td style="font-weight:bold;vertical-align:top">gluon_parent</td><td valign="top">:</td><td><div>/home/www-data/web2py</div></td></tr><tr><td style="font-weight:bold;vertical-align:top">is_jython</td><td valign="top">:</td><td><div>False</div></td></tr><tr><td style="font-weight:bold;vertical-align:top">is_pypy</td><td valign="top">:</td><td><div>False</div></td></tr><tr><td style="font-weight:bold;vertical-align:top">local_hosts</td><td valign="top">:</td><td><div><table><tr><td><div>::ffff:127.0.0.1</div></td></tr><tr><td><div>::1</div></td></tr><tr><td><div>localhost</div></td></tr><tr><td><div>pong</div></td></tr><tr><td><div>127.0.1.1</div></td></tr><tr><td><div>127.0.0.1</div></td></tr></table></div></td></tr><tr><td style="font-weight:bold;vertical-align:top">web2py_version</td><td valign="top">:</td><td><div>2.4.6-stable+timestamp.2013.04.06.17.37.38</div></td></tr></table></div></td></tr><tr><td style="font-weight:bold;vertical-align:top">is_https</td><td valign="top">:</td><td><div>True</div></td></tr><tr><td style="font-weight:bold;vertical-align:top">is_local</td><td valign="top">:</td><td><div>True</div></td></tr><tr><td style="font-weight:bold;vertical-align:top">is_restful</td><td valign="top">:</td><td><div>False</div></td></tr><tr><td style="font-weight:bold;vertical-align:top">now</td><td valign="top">:</td><td><div>datetime.datetime(2013, 4, 25, 2, 40, 8, 880496)</div></td></tr><tr><td style="font-weight:bold;vertical-align:top">post_vars</td><td valign="top">:</td><td><div><table></table></div></td></tr><tr><td style="font-weight:bold;vertical-align:top">raw_args</td><td valign="top">:</td><td><div></div></td></tr><tr><td style="font-weight:bold;vertical-align:top">raw_extension</td><td valign="top">:</td><td><div>None</div></td></tr><tr><td style="font-weight:bold;vertical-align:top">url</td><td valign="top">:</td><td><div>/musicbrainz/default/release</div></td></tr><tr><td style="font-weight:bold;vertical-align:top">utcnow</td><td valign="top">:</td><td><div>datetime.datetime(2013, 4, 24, 21, 10, 8, 880534)</div></td></tr><tr><td style="font-weight:bold;vertical-align:top">uuid</td><td valign="top">:</td><td><div>musicbrainz/127.0.0.1.2013-04-25.02-40-08.2082721f-98e3-45d7-9c82-3f80c8307341</div></td></tr><tr><td style="font-weight:bold;vertical-align:top">vars</td><td valign="top">:</td><td><div><table><tr><td style="font-weight:bold;vertical-align:top">id</td><td valign="top">:</td><td><div>548204</div></td></tr></table></div></td></tr><tr><td style="font-weight:bold;vertical-align:top">wsgi</td><td valign="top">:</td><td><div><table><tr><td style="font-weight:bold;vertical-align:top">environ</td><td valign="top">:</td><td><div><table><tr><td style="font-weight:bold;vertical-align:top">DOCUMENT_ROOT</td><td valign="top">:</td><td><div>/etc/apache2/htdocs</div></td></tr><tr><td style="font-weight:bold;vertical-align:top">GATEWAY_INTERFACE</td><td valign="top">:</td><td><div>CGI/1.1</div></td></tr><tr><td style="font-weight:bold;vertical-align:top">HTTPS</td><td valign="top">:</td><td><div>1</div></td></tr><tr><td style="font-weight:bold;vertical-align:top">HTTP_ACCEPT</td><td valign="top">:</td><td><div>text/html,application/xhtml+xml,application/xml;q=0.9,*/*;q=0.8</div></td></tr><tr><td style="font-weight:bold;vertical-align:top">HTTP_ACCEPT_CHARSET</td><td valign="top">:</td><td><div>ISO-8859-1,utf-8;q=0.7,*;q=0.3</div></td></tr><tr><td style="font-weight:bold;vertical-align:top">HTTP_ACCEPT_ENCODING</td><td valign="top">:</td><td><div>gzip,deflate,sdch</div></td></tr><tr><td style="font-weight:bold;vertical-align:top">HTTP_ACCEPT_LANGUAGE</td><td valign="top">:</td><td><div>en-US,en;q=0.8</div></td></tr><tr><td style="font-weight:bold;vertical-align:top">HTTP_CACHE_CONTROL</td><td valign="top">:</td><td><div>max-age=0</div></td></tr><tr><td style="font-weight:bold;vertical-align:top">HTTP_CONNECTION</td><td valign="top">:</td><td><div>keep-alive</div></td></tr><tr><td style="font-weight:bold;vertical-align:top">HTTP_COOKIE</td><td valign="top">:</td><td><div>session_id_musicbrainz=127.0.0.1-cef46f10-7fe3-4161-8f04-f260945a4b1b; session_id_admin=127.0.0.1-55ffdea2-36a6-4dc3-9176-b41244b4df52</div></td></tr><tr><td style="font-weight:bold;vertical-align:top">HTTP_HOST</td><td valign="top">:</td><td><div>localhost</div></td></tr><tr><td style="font-weight:bold;vertical-align:top">HTTP_REFERER</td><td valign="top">:</td><td><div>https://localhost/musicbrainz/default/album?id=845327</div></td></tr><tr><td style="font-weight:bold;vertical-align:top">HTTP_USER_AGENT</td><td valign="top">:</td><td><div>Mozilla/5.0 (X11; Linux i686) AppleWebKit/537.17 (KHTML, like Gecko) Chrome/24.0.1312.52 Safari/537.17</div></td></tr><tr><td style="font-weight:bold;vertical-align:top">PATH_INFO</td><td valign="top">:</td><td><div>/musicbrainz/default/release</div></td></tr><tr><td style="font-weight:bold;vertical-align:top">PATH_TRANSLATED</td><td valign="top">:</td><td><div>/home/www-data/web2py/wsgihandler.py/musicbrainz/default/release</div></td></tr><tr><td style="font-weight:bold;vertical-align:top">QUERY_STRING</td><td valign="top">:</td><td><div>id=548204</div></td></tr><tr><td style="font-weight:bold;vertical-align:top">REMOTE_ADDR</td><td valign="top">:</td><td><div>127.0.0.1</div></td></tr><tr><td style="font-weight:bold;vertical-align:top">REMOTE_PORT</td><td valign="top">:</td><td><div>50682</div></td></tr><tr><td style="font-weight:bold;vertical-align:top">REQUEST_METHOD</td><td valign="top">:</td><td><div>GET</div></td></tr><tr><td style="font-weight:bold;vertical-align:top">REQUEST_URI</td><td valign="top">:</td><td><div>/musicbrainz/default/release?id=548204</div></td></tr><tr><td style="font-weight:bold;vertical-align:top">SCRIPT_FILENAME</td><td valign="top">:</td><td><div>/home/www-data/web2py/wsgihandler.py</div></td></tr><tr><td style="font-weight:bold;vertical-align:top">SCRIPT_NAME</td><td valign="top">:</td><td><div></div></td></tr><tr><td style="font-weight:bold;vertical-align:top">SERVER_ADDR</td><td valign="top">:</td><td><div>127.0.0.1</div></td></tr><tr><td style="font-weight:bold;vertical-align:top">SERVER_ADMIN</td><td valign="top">:</td><td><div>[no address given]</div></td></tr><tr><td style="font-weight:bold;vertical-align:top">SERVER_NAME</td><td valign="top">:</td><td><div>localhost</div></td></tr><tr><td style="font-weight:bold;vertical-align:top">SERVER_PORT</td><td valign="top">:</td><td><div>443</div></td></tr><tr><td style="font-weight:bold;vertical-align:top">SERVER_PROTOCOL</td><td valign="top">:</td><td><div>HTTP/1.1</div></td></tr><tr><td style="font-weight:bold;vertical-align:top">SERVER_SIGNATURE</td><td valign="top">:</td><td><div>&lt;address&gt;Apache/2.2.22 (Ubuntu) Server at localhost Port 443&lt;/address&gt;\n</div></td></tr><tr><td style="font-weight:bold;vertical-align:top">SERVER_SOFTWARE</td><td valign="top">:</td><td><div>Apache/2.2.22 (Ubuntu)</div></td></tr><tr><td style="font-weight:bold;vertical-align:top">SSL_TLS_SNI</td><td valign="top">:</td><td><div>localhost</div></td></tr><tr><td style="font-weight:bold;vertical-align:top">mod_wsgi.application_group</td><td valign="top">:</td><td><div>127.0.1.1|</div></td></tr><tr><td style="font-weight:bold;vertical-align:top">mod_wsgi.callable_object</td><td valign="top">:</td><td><div>application</div></td></tr><tr><td style="font-weight:bold;vertical-align:top">mod_wsgi.handler_script</td><td valign="top">:</td><td><div></div></td></tr><tr><td style="font-weight:bold;vertical-align:top">mod_wsgi.input_chunked</td><td valign="top">:</td><td><div>0</div></td></tr><tr><td style="font-weight:bold;vertical-align:top">mod_wsgi.listener_host</td><td valign="top">:</td><td><div></div></td></tr><tr><td style="font-weight:bold;vertical-align:top">mod_wsgi.listener_port</td><td valign="top">:</td><td><div>443</div></td></tr><tr><td style="font-weight:bold;vertical-align:top">mod_wsgi.process_group</td><td valign="top">:</td><td><div>web2py</div></td></tr><tr><td style="font-weight:bold;vertical-align:top">mod_wsgi.request_handler</td><td valign="top">:</td><td><div>wsgi-script</div></td></tr><tr><td style="font-weight:bold;vertical-align:top">mod_wsgi.script_reloading</td><td valign="top">:</td><td><div>1</div></td></tr><tr><td style="font-weight:bold;vertical-align:top">mod_wsgi.version</td><td valign="top">:</td><td><div><table><tr><td><div>3</div></td></tr><tr><td><div>3</div></td></tr></table></div></td></tr><tr><td style="font-weight:bold;vertical-align:top">wsgi.errors</td><td valign="top">:</td><td><div>&lt;mod_wsgi.Log object at 0xaad262c8&gt;</div></td></tr><tr><td style="font-weight:bold;vertical-align:top">wsgi.file_wrapper</td><td valign="top">:</td><td><div>&lt;built-in method file_wrapper of mod_wsgi.Adapter object at 0xab253f98&gt;</div></td></tr><tr><td style="font-weight:bold;vertical-align:top">wsgi.input</td><td valign="top">:</td><td><div>&lt;cStringIO.StringO object at 0xaae73b60&gt;</div></td></tr><tr><td style="font-weight:bold;vertical-align:top">wsgi.multiprocess</td><td valign="top">:</td><td><div>False</div></td></tr><tr><td style="font-weight:bold;vertical-align:top">wsgi.multithread</td><td valign="top">:</td><td><div>True</div></td></tr><tr><td style="font-weight:bold;vertical-align:top">wsgi.run_once</td><td valign="top">:</td><td><div>False</div></td></tr><tr><td style="font-weight:bold;vertical-align:top">wsgi.url_scheme</td><td valign="top">:</td><td><div>https</div></td></tr><tr><td style="font-weight:bold;vertical-align:top">wsgi.version</td><td valign="top">:</td><td><div>1</div></td></tr></table></div></td></tr></table></div></td></tr></table></div>'
tRp58
sS'frames'
p59
(lp60
(dp61
S'file'
p62
S'/home/www-data/web2py/gluon/restricted.py'
p63
sS'dump'
p64
(dp65
S'environment'
p66
S"{'A': <class 'gluon.html.A'>, 'ANY_OF': <class 'gluon.validators.ANY_OF'>, 'Auth': <class 'gluon.tools.Auth'>, 'B': <class 'gluon.html.B'>, 'BEAUTIFY': <class 'gluon.html.BEAUTIFY'>, 'BODY': <class 'gluon.html.BODY'>, 'BR': <class 'gluon.html.BR'>, 'BUTTON': <class 'gluon.html.BUTTON'>, 'CAT': <class 'gluon.html.CAT'>, 'CENTER': <class 'gluon.html.CENTER'>, ...}"
p67
sS'ccode'
p68
S'<code object <module> at 0xab254cc8, file "/home...ons/musicbrainz/controllers/default.py", line 16>'
p69
ssS'lnum'
p70
I212
sS'lines'
p71
(dp72
I207
S'    try:'
p73
sI208
S'        if isinstance(code, types.CodeType):'
p74
sI209
S'            ccode = code'
p75
sI210
S'        else:'
p76
sI211
S'            ccode = compile2(code, layer)'
p77
sI212
S'        exec ccode in environment'
p78
sI213
S'    except HTTP:'
p79
sI214
S'        raise'
p80
sI215
S'    except RestrictedError:'
p81
sI216
S'        # do not encapsulate (obfuscate) the original RestrictedError'
p82
ssS'call'
p83
S"(code='# -*- coding: utf-8 -*-\\n# this file is released ...rud())\\n\\nresponse._vars=response._caller(release)\\n', environment={'A': <class 'gluon.html.A'>, 'ANY_OF': <class 'gluon.validators.ANY_OF'>, 'Auth': <class 'gluon.tools.Auth'>, 'B': <class 'gluon.html.B'>, 'BEAUTIFY': <class 'gluon.html.BEAUTIFY'>, 'BODY': <class 'gluon.html.BODY'>, 'BR': <class 'gluon.html.BR'>, 'BUTTON': <class 'gluon.html.BUTTON'>, 'CAT': <class 'gluon.html.CAT'>, 'CENTER': <class 'gluon.html.CENTER'>, ...}, layer='/home/www-data/web2py/applications/musicbrainz/controllers/default.py')"
p84
sS'func'
p85
S'restricted'
p86
sa(dp87
g62
S'/home/www-data/web2py/applications/musicbrainz/controllers/default.py'
p88
sg64
(dp89
sg70
I252
sg71
(dp90
I241
S'\thttp://..../[app]/default/data/update/[table]/[id]'
p91
sI242
S'\thttp://..../[app]/default/data/delete/[table]/[id]'
p92
sI243
S'\thttp://..../[app]/default/data/select/[table]'
p93
sI244
S'\thttp://..../[app]/default/data/search/[table]'
p94
sI245
S'\tbut URLs must be signed, i.e. linked with'
p95
sI246
S"\t  A('table',_href=URL('data/tables',user_signature=True))"
p96
sI247
S'\tor with the signed load operator'
p97
sI248
S"\t  LOAD('default','data.load',args='tables',ajax=True,user_signature=True)"
p98
sI249
S'\t"""'
p99
sI250
S'\treturn dict(form=crud())'
p100
ssg83
S'()'
p101
sg85
S'<module>'
p102
sa(dp103
g62
S'/home/www-data/web2py/gluon/globals.py'
p104
sg64
(dp105
S'self'
p106
S'undefined'
p107
sS'f'
S'<function release>'
p108
ssg70
I194
sg71
(dp109
I192
S"        self.delimiters = ('{{', '}}')"
p110
sI193
S'        self._vars = None'
p111
sI194
S'        self._caller = lambda f: f()'
p112
sI195
S'        self._view_environment = None'
p113
sI196
S'        self._custom_commit = None'
p114
sI197
S'        self._custom_rollback = None'
p115
sI198
S''
sI189
S'        self.menu = []             # used by the default view layout'
p116
sI190
S'        self.files = []            # used by web2py_ajax.html'
p117
sI191
S'        self.generic_patterns = []  # patterns to allow generic views'
p118
ssg83
S'(f=<function release>)'
p119
sg85
S'<lambda>'
p120
sa(dp121
g62
S'/home/www-data/web2py/applications/musicbrainz/controllers/default.py'
p122
sg64
(dp123
S'wiki'
p124
S"''"
p125
sS'releasename'
p126
S"[('1985: A Day at the Stadium: Wembley Stadium, London, UK',)]"
p127
sS'covertarurl'
p128
g107
sS'tracklist1'
p129
S'[[9438236, \'One Vision\', 1, \'N/A\'], [9438237, \'Tie Your Mother Down\', 2, \'N/A\'], [9438239, \'Seven Seas of Rhye\', 3, \'N/A\'], [9438240, \'Tear It Up\', 4, \'N/A\'], [9438241, \'A Kind of Magic\', 5, \'N/A\'], [9438242, \'Under Pressure\', 6, \'N/A\'], [9438243, \'Another One Bites the Dust\', 7, \'N/A\'], [9438244, \'I Want to Break Free\', 8, \'N/A\'], [9438245, \'Instrumental Jam\', 9, \'N/A\'], [9438246, "Now I\'m Here", 10, \'N/A\'], [9438247, \'Love of My Life\', 11, \'N/A\'], [9438248, \'Is This the World We Created...?\', 12, \'N/A\'], [9438249, "Baby I Don\'t Care / Hello Mary Lou / Tutti Frutti", 13, \'N/A\'], [9438250, \'Bohemian Rhapsody\', 14, \'N/A\'], [9438238, \'Hammer to Fall\', 15, \'N/A\'], [9438251, \'Crazy Little Thing Called Love\', 16, \'N/A\'], [9438252, \'We Are the Champions\', 17, \'N/A\']]'
p130
sS'links'
p131
S'[]'
p132
sS'coverarturl'
p133
S"u'http://coverartarchive.org/release/bfb2118f-708d-4848-a71d-07cea048b92d/1587547100.jpg'"
p134
sS'playlists'
p135
S'<Rows (1)>'
p136
sS'tracklist'
p137
S'[(9438236, \'One Vision\', 1, None), (9438237, \'Tie Your Mother Down\', 2, None), (9438239, \'Seven Seas of Rhye\', 3, None), (9438240, \'Tear It Up\', 4, None), (9438241, \'A Kind of Magic\', 5, None), (9438242, \'Under Pressure\', 6, None), (9438243, \'Another One Bites the Dust\', 7, None), (9438244, \'I Want to Break Free\', 8, None), (9438245, \'Instrumental Jam\', 9, None), (9438246, "Now I\'m Here", 10, None), (9438247, \'Love of My Life\', 11, None), (9438248, \'Is This the World We Created...?\', 12, None), (9438249, "Baby I Don\'t Care / Hello Mary Lou / Tutti Frutti", 13, None), (9438250, \'Bohemian Rhapsody\', 14, None), (9438238, \'Hammer to Fall\', 15, None), (9438251, \'Crazy Little Thing Called Love\', 16, None), (9438252, \'We Are the Champions\', 17, None)]'
p138
sS'builtindict'
p139
S"<type 'dict'>"
p140
ssg70
I132
sg71
(dp141
I128
S'\tif auth.user:'
p142
sI129
S'\t\tplaylists = db(db.playlists.user_id == auth.user.id).select()'
p143
sI130
S'\telse:'
p144
sI131
S'\t\tplaylists = None'
p145
sI132
S'\treturn dict(tracklist=tracklist1, releasename=releasename, wiki=wiki, links=links, playlists=playlists, coverarturl=covertarurl)'
p146
sI133
S''
sI134
S'########### ARTIST CONTROLLER ##############'
p147
sI135
S'def artist():'
p148
sI136
S'\t"""'
p149
sI127
S'\t\ttracklist1.append(row1)'
p150
ssg83
S'()'
p151
sg85
S'release'
p152
sasS'pyver'
p153
S'Python 2.7.3: /usr/bin/python (prefix: /usr)'
p154
sS'session'
p155
g57
(S's\xf2\x07\x00\x00<div><table><tr><td style="font-weight:bold;vertical-align:top">auth</td><td valign="top">:</td><td><div><table><tr><td style="font-weight:bold;vertical-align:top">expiration</td><td valign="top">:</td><td><div>2592000</div></td></tr><tr><td style="font-weight:bold;vertical-align:top">hmac_key</td><td valign="top">:</td><td><div>87ac0735-b354-4562-a009-7eb27b4642a4</div></td></tr><tr><td style="font-weight:bold;vertical-align:top">last_visit</td><td valign="top">:</td><td><div>datetime.datetime(2013, 4, 25, 0, 48, 10, 450351)</div></td></tr><tr><td style="font-weight:bold;vertical-align:top">remember</td><td valign="top">:</td><td><div>True</div></td></tr><tr><td style="font-weight:bold;vertical-align:top">user</td><td valign="top">:</td><td><div><table><tr><td style="font-weight:bold;vertical-align:top">email</td><td valign="top">:</td><td><div>devashishrocker@gmail.com</div></td></tr><tr><td style="font-weight:bold;vertical-align:top">first_name</td><td valign="top">:</td><td><div>Devashish</div></td></tr><tr><td style="font-weight:bold;vertical-align:top">id</td><td valign="top">:</td><td><div>1</div></td></tr><tr><td style="font-weight:bold;vertical-align:top">last_name</td><td valign="top">:</td><td><div>Sharma</div></td></tr><tr><td style="font-weight:bold;vertical-align:top">registration_id</td><td valign="top">:</td><td><div></div></td></tr><tr><td style="font-weight:bold;vertical-align:top">registration_key</td><td valign="top">:</td><td><div></div></td></tr><tr><td style="font-weight:bold;vertical-align:top">reset_password_key</td><td valign="top">:</td><td><div></div></td></tr></table></div></td></tr><tr><td style="font-weight:bold;vertical-align:top">user_groups</td><td valign="top">:</td><td><div><table><tr><td style="font-weight:bold;vertical-align:top">1</td><td valign="top">:</td><td><div>user_1</div></td></tr></table></div></td></tr></table></div></td></tr><tr><td style="font-weight:bold;vertical-align:top">flash</td><td valign="top">:</td><td><div>None</div></td></tr></table></div>'
tRp156
sS'etype'
p157
S"<type 'exceptions.NameError'>"
p158
sS'date'
p159
S'Thu Apr 25 02:40:10 2013'
p160
sS'response'
p161
g57
(S's\xcc\x1a\x00\x00<div><table><tr><td style="font-weight:bold;vertical-align:top">body</td><td valign="top">:</td><td><div>&lt;cStringIO.StringO object at 0xaa924d20&gt;</div></td></tr><tr><td style="font-weight:bold;vertical-align:top">cookies</td><td valign="top">:</td><td><div><table><tr><td style="font-weight:bold;vertical-align:top">session_id_musicbrainz</td><td valign="top">:</td><td><div>127.0.0.1-cef46f10-7fe3-4161-8f04-f260945a4b1b<table><tr><td style="font-weight:bold;vertical-align:top">comment</td><td valign="top">:</td><td><div></div></td></tr><tr><td style="font-weight:bold;vertical-align:top">domain</td><td valign="top">:</td><td><div></div></td></tr><tr><td style="font-weight:bold;vertical-align:top">expires</td><td valign="top">:</td><td><div>2592000</div></td></tr><tr><td style="font-weight:bold;vertical-align:top">httponly</td><td valign="top">:</td><td><div></div></td></tr><tr><td style="font-weight:bold;vertical-align:top">max-age</td><td valign="top">:</td><td><div></div></td></tr><tr><td style="font-weight:bold;vertical-align:top">path</td><td valign="top">:</td><td><div>/</div></td></tr><tr><td style="font-weight:bold;vertical-align:top">secure</td><td valign="top">:</td><td><div></div></td></tr><tr><td style="font-weight:bold;vertical-align:top">version</td><td valign="top">:</td><td><div></div></td></tr></table></div></td></tr></table></div></td></tr><tr><td style="font-weight:bold;vertical-align:top">delimiters</td><td valign="top">:</td><td><div><table><tr><td><div>{{</div></td></tr><tr><td><div>}}</div></td></tr></table></div></td></tr><tr><td style="font-weight:bold;vertical-align:top">files</td><td valign="top">:</td><td><div><table></table></div></td></tr><tr><td style="font-weight:bold;vertical-align:top">flash</td><td valign="top">:</td><td><div></div></td></tr><tr><td style="font-weight:bold;vertical-align:top">generic_patterns</td><td valign="top">:</td><td><div><table><tr><td><div>*</div></td></tr></table></div></td></tr><tr><td style="font-weight:bold;vertical-align:top">google_analytics_id</td><td valign="top">:</td><td><div>None</div></td></tr><tr><td style="font-weight:bold;vertical-align:top">headers</td><td valign="top">:</td><td><div><table><tr><td style="font-weight:bold;vertical-align:top">X-Powered-By</td><td valign="top">:</td><td><div>web2py</div></td></tr></table></div></td></tr><tr><td style="font-weight:bold;vertical-align:top">logo</td><td valign="top">:</td><td><div><a class="brand" href="/musicbrainz/default/index"><b>MusicBrainz</b>&trade;&nbsp;</a></div></td></tr><tr><td style="font-weight:bold;vertical-align:top">menu</td><td valign="top">:</td><td><div><table><tr><td><div><table><tr><td><div>Search</div></td></tr><tr><td><div>False</div></td></tr><tr><td><div>/musicbrainz/default/index</div></td></tr></table></div></td></tr><tr><td><div><table><tr><td><div>Advanced Search</div></td></tr><tr><td><div>False</div></td></tr><tr><td><div>/musicbrainz/default/release</div></td></tr><tr><td><div><table><tr><td><div><table><tr><td><div>For Artists</div></td></tr><tr><td><div>False</div></td></tr><tr><td><div>/musicbrainz/default/artistsearch</div></td></tr></table></div></td></tr><tr><td><div><table><tr><td><div>For Albums</div></td></tr><tr><td><div>False</div></td></tr><tr><td><div>/musicbrainz/default/albumsearch</div></td></tr></table></div></td></tr><tr><td><div><table><tr><td><div>For Songs</div></td></tr><tr><td><div>False</div></td></tr><tr><td><div>/musicbrainz/default/songsearch</div></td></tr></table></div></td></tr></table></div></td></tr></table></div></td></tr><tr><td><div><table><tr><td><div>Playlists</div></td></tr><tr><td><div>False</div></td></tr><tr><td><div>/musicbrainz/default/playlist</div></td></tr></table></div></td></tr></table></div></td></tr><tr><td style="font-weight:bold;vertical-align:top">meta</td><td valign="top">:</td><td><div><table><tr><td style="font-weight:bold;vertical-align:top">author</td><td valign="top">:</td><td><div>Devashish Tyagi &lt;devashishrocker@gmail.com&gt;</div></td></tr><tr><td style="font-weight:bold;vertical-align:top">description</td><td valign="top">:</td><td><div>An Application to explore musicbrainz database</div></td></tr><tr><td style="font-weight:bold;vertical-align:top">generator</td><td valign="top">:</td><td><div>Web2py Web Framework</div></td></tr><tr><td style="font-weight:bold;vertical-align:top">keywords</td><td valign="top">:</td><td><div>web2py, python, framework</div></td></tr></table></div></td></tr><tr><td style="font-weight:bold;vertical-align:top">models_to_run</td><td valign="top">:</td><td><div><table><tr><td><div>^\\w+\\.py$</div></td></tr><tr><td><div>^default/\\w+\\.py$</div></td></tr><tr><td><div>^default/release/\\w+\\.py$</div></td></tr></table></div></td></tr><tr><td style="font-weight:bold;vertical-align:top">postprocessing</td><td valign="top">:</td><td><div><table></table></div></td></tr><tr><td style="font-weight:bold;vertical-align:top">session_cookie_expires</td><td valign="top">:</td><td><div>None</div></td></tr><tr><td style="font-weight:bold;vertical-align:top">session_data_name</td><td valign="top">:</td><td><div>session_data_musicbrainz</div></td></tr><tr><td style="font-weight:bold;vertical-align:top">session_file</td><td valign="top">:</td><td><div>&lt;open file &#x27;/home/www-data/web2py/applications/musicbrainz/sessions/127.0.0.1-cef46f10-7fe3-4161-8f04-f260945a4b1b&#x27;, mode &#x27;rb+&#x27; at 0xabf5bac8&gt;</div></td></tr><tr><td style="font-weight:bold;vertical-align:top">session_filename</td><td valign="top">:</td><td><div>/home/www-data/web2py/applications/musicbrainz/sessions/127.0.0.1-cef46f10-7fe3-4161-8f04-f260945a4b1b</div></td></tr><tr><td style="font-weight:bold;vertical-align:top">session_id</td><td valign="top">:</td><td><div>127.0.0.1-cef46f10-7fe3-4161-8f04-f260945a4b1b</div></td></tr><tr><td style="font-weight:bold;vertical-align:top">session_id_name</td><td valign="top">:</td><td><div>session_id_musicbrainz</div></td></tr><tr><td style="font-weight:bold;vertical-align:top">session_locked</td><td valign="top">:</td><td><div>True</div></td></tr><tr><td style="font-weight:bold;vertical-align:top">session_new</td><td valign="top">:</td><td><div>False</div></td></tr><tr><td style="font-weight:bold;vertical-align:top">session_storage_type</td><td valign="top">:</td><td><div>file</div></td></tr><tr><td style="font-weight:bold;vertical-align:top">status</td><td valign="top">:</td><td><div>200</div></td></tr><tr><td style="font-weight:bold;vertical-align:top">subtitle</td><td valign="top">:</td><td><div>Discover Music</div></td></tr><tr><td style="font-weight:bold;vertical-align:top">title</td><td valign="top">:</td><td><div>Musicbrainz</div></td></tr><tr><td style="font-weight:bold;vertical-align:top">view</td><td valign="top">:</td><td><div>default/release.html</div></td></tr></table></div>'
tRp162
sS'locals'
p163
(dp164
S'wiki'
p165
S"''"
p166
sS'row1'
p167
S"[9438252, 'We Are the Champions', 17, 'N/A']"
p168
sS'f'
S'<addinfourl at 2859852108L whose fp = <socket._fileobject object>>'
p169
sS'tracklist1'
p170
S'[[9438236, \'One Vision\', 1, \'N/A\'], [9438237, \'Tie Your Mother Down\', 2, \'N/A\'], [9438239, \'Seven Seas of Rhye\', 3, \'N/A\'], [9438240, \'Tear It Up\', 4, \'N/A\'], [9438241, \'A Kind of Magic\', 5, \'N/A\'], [9438242, \'Under Pressure\', 6, \'N/A\'], [9438243, \'Another One Bites the Dust\', 7, \'N/A\'], [9438244, \'I Want to Break Free\', 8, \'N/A\'], [9438245, \'Instrumental Jam\', 9, \'N/A\'], [9438246, "Now I\'m Here", 10, \'N/A\'], [9438247, \'Love of My Life\', 11, \'N/A\'], [9438248, \'Is This the World We Created...?\', 12, \'N/A\'], [9438249, "Baby I Don\'t Care / Hello Mary Lou / Tutti Frutti", 13, \'N/A\'], [9438250, \'Bohemian Rhapsody\', 14, \'N/A\'], [9438238, \'Hammer to Fall\', 15, \'N/A\'], [9438251, \'Crazy Little Thing Called Love\', 16, \'N/A\'], [9438252, \'We Are the Champions\', 17, \'N/A\']]'
p171
sS'links'
p172
S'[]'
p173
sS'coverarturl'
p174
S"u'http://coverartarchive.org/release/bfb2118f-708d-4848-a71d-07cea048b92d/1587547100.jpg'"
p175
sS'data'
p176
S"{u'images': [{u'approved': True, u'back': False, u'comment': u'', u'edit': 18513471, u'front': True, u'id': u'1587547100', u'image': u'http://coverartarchive.org/release/bfb2118f-708d-4848-a71d-07cea048b92d/1587547100.jpg', u'thumbnails': {u'large': u'http://coverartarchive.org/release/bfb2118f-708d-4848-a71d-07cea048b92d/1587547100-500.jpg', u'small': u'http://coverartarchive.org/release/bfb2118f-708d-4848-a71d-07cea048b92d/1587547100-250.jpg'}, u'types': [u'Front']}], u'release': u'http://musicbrainz.org/release/bfb2118f-708d-4848-a71d-07cea048b92d'}"
p177
sS'req'
p178
S'<urllib2.Request instance>'
p179
sS'mbid'
p180
S"[('bfb2118f-708d-4848-a71d-07cea048b92d',)]"
p181
sS'releasename'
p182
S"[('1985: A Day at the Stadium: Wembley Stadium, London, UK',)]"
p183
sS'authentication'
p184
S'<urllib2.HTTPBasicAuthHandler instance>'
p185
sS'opener'
p186
S'<urllib2.OpenerDirector instance>'
p187
sS'proxy'
p188
S'<urllib2.ProxyHandler instance>'
p189
sS'urls'
p190
S'[]'
p191
sS'destination'
p192
S"'http://www.coverartarchive.org/release/bfb2118f-708d-4848-a71d-07cea048b92d'"
p193
sS'playlists'
p194
S'<Rows (1)>'
p195
sS'tracklist'
p196
S'[(9438236, \'One Vision\', 1, None), (9438237, \'Tie Your Mother Down\', 2, None), (9438239, \'Seven Seas of Rhye\', 3, None), (9438240, \'Tear It Up\', 4, None), (9438241, \'A Kind of Magic\', 5, None), (9438242, \'Under Pressure\', 6, None), (9438243, \'Another One Bites the Dust\', 7, None), (9438244, \'I Want to Break Free\', 8, None), (9438245, \'Instrumental Jam\', 9, None), (9438246, "Now I\'m Here", 10, None), (9438247, \'Love of My Life\', 11, None), (9438248, \'Is This the World We Created...?\', 12, None), (9438249, "Baby I Don\'t Care / Hello Mary Lou / Tutti Frutti", 13, None), (9438250, \'Bohemian Rhapsody\', 14, None), (9438238, \'Hammer to Fall\', 15, None), (9438251, \'Crazy Little Thing Called Love\', 16, None), (9438252, \'We Are the Champions\', 17, None)]'
p197
sS'id'
p198
S"'548204'"
p199
sS'row'
p200
S"(9438252, 'We Are the Champions', 17, None)"
p201
sssS'traceback'
p202
S'Traceback (most recent call last):\n  File "/home/www-data/web2py/gluon/restricted.py", line 212, in restricted\n    exec ccode in environment\n  File "/home/www-data/web2py/applications/musicbrainz/controllers/default.py", line 252, in <module>\n  File "/home/www-data/web2py/gluon/globals.py", line 194, in <lambda>\n    self._caller = lambda f: f()\n  File "/home/www-data/web2py/applications/musicbrainz/controllers/default.py", line 132, in release\n    return dict(tracklist=tracklist1, releasename=releasename, wiki=wiki, links=links, playlists=playlists, coverarturl=covertarurl)\nNameError: global name \'covertarurl\' is not defined\n'
p203
s.